

Microchip Technology PIC LITE Macro Assembler V1.12 build 49521 
                                                                                               Fri Aug 01 13:22:16 2014

HI-TECH Software Omniscient Code Generator (Lite mode) build 49521
     1  0000                     opt subtitle "HI-TECH Software Omniscient Code Generator (Lite mode) build 49521"
     2                           opt subtitle "HI-TECH Software Omniscient Code Generator (Lite mode) build 49521"
     3                           
     4                           opt pagewidth 120
     5                           
     6                           	opt lm
     7                           
     8                           	processor	16F88
     9                           clrc	macro
    10  0000                     	endm
    11                           opt subtitle "HI-TECH Software Omniscient Code Generator (Lite mode) build 49521"
    12                           
    13  0000                     	endm
    14                           opt subtitle "HI-TECH Software Omniscient Code Generator (Lite mode) build 49521"
    15                           
    16  0000                     	endm
    17                           opt subtitle "HI-TECH Software Omniscient Code Generator (Lite mode) build 49521"
    18                           
    19  0000                     	endm
    20                           opt subtitle "HI-TECH Software Omniscient Code Generator (Lite mode) build 49521"
    21                           
    22  0000                     	endm
    23                           opt subtitle "HI-TECH Software Omniscient Code Generator (Lite mode) build 49521"
    24                           
    25  0000                     	endm
    26                           opt subtitle "HI-TECH Software Omniscient Code Generator (Lite mode) build 49521"
    27                           
    28  0000                     	endm
    29                           opt subtitle "HI-TECH Software Omniscient Code Generator (Lite mode) build 49521"
    30                           
    31  0000                     	endm
    32  0000                     indf	equ	0
    33  0000                     indf0	equ	0
    34  0002                     pc	equ	2
    35  0002                     pcl	equ	2
    36  0003                     status	equ	3
    37  0004                     fsr	equ	4
    38  0004                     fsr0	equ	4
    39  0001                     c	equ	1
    40  0000                     z	equ	0
    41  000A                     pclath	equ	10
    42                           opt subtitle "HI-TECH Software Omniscient Code Generator (Lite mode) build 49521"
    43  0000                     INDF equ 00h ;# 
    44                           opt subtitle "HI-TECH Software Omniscient Code Generator (Lite mode) build 49521"
    45  0001                     TMR0 equ 01h ;# 
    46                           opt subtitle "HI-TECH Software Omniscient Code Generator (Lite mode) build 49521"
    47  0002                     PCL equ 02h ;# 
    48                           opt subtitle "HI-TECH Software Omniscient Code Generator (Lite mode) build 49521"
    49  0003                     STATUS equ 03h ;# 
    50                           opt subtitle "HI-TECH Software Omniscient Code Generator (Lite mode) build 49521"
    51  0004                     FSR equ 04h ;# 
    52                           opt subtitle "HI-TECH Software Omniscient Code Generator (Lite mode) build 49521"
    53  0005                     PORTA equ 05h ;# 
    54                           opt subtitle "HI-TECH Software Omniscient Code Generator (Lite mode) build 49521"
    55  0006                     PORTB equ 06h ;# 
    56                           opt subtitle "HI-TECH Software Omniscient Code Generator (Lite mode) build 49521"
    57  000A                     PCLATH equ 0Ah ;# 
    58                           opt subtitle "HI-TECH Software Omniscient Code Generator (Lite mode) build 49521"
    59  000B                     INTCON equ 0Bh ;# 
    60                           opt subtitle "HI-TECH Software Omniscient Code Generator (Lite mode) build 49521"
    61  000C                     PIR1 equ 0Ch ;# 
    62                           opt subtitle "HI-TECH Software Omniscient Code Generator (Lite mode) build 49521"
    63  000D                     PIR2 equ 0Dh ;# 
    64                           opt subtitle "HI-TECH Software Omniscient Code Generator (Lite mode) build 49521"
    65  000E                     TMR1 equ 0Eh ;# 
    66                           opt subtitle "HI-TECH Software Omniscient Code Generator (Lite mode) build 49521"
    67  000E                     TMR1L equ 0Eh ;# 
    68                           opt subtitle "HI-TECH Software Omniscient Code Generator (Lite mode) build 49521"
    69  000F                     TMR1H equ 0Fh ;# 
    70                           opt subtitle "HI-TECH Software Omniscient Code Generator (Lite mode) build 49521"
    71  0010                     T1CON equ 010h ;# 
    72                           opt subtitle "HI-TECH Software Omniscient Code Generator (Lite mode) build 49521"
    73  0011                     TMR2 equ 011h ;# 
    74                           opt subtitle "HI-TECH Software Omniscient Code Generator (Lite mode) build 49521"
    75  0012                     T2CON equ 012h ;# 
    76                           opt subtitle "HI-TECH Software Omniscient Code Generator (Lite mode) build 49521"
    77  0013                     SSPBUF equ 013h ;# 
    78                           opt subtitle "HI-TECH Software Omniscient Code Generator (Lite mode) build 49521"
    79  0014                     SSPCON equ 014h ;# 
    80                           opt subtitle "HI-TECH Software Omniscient Code Generator (Lite mode) build 49521"
    81  0015                     CCPR1 equ 015h ;# 
    82                           opt subtitle "HI-TECH Software Omniscient Code Generator (Lite mode) build 49521"
    83  0015                     CCPR1L equ 015h ;# 
    84                           opt subtitle "HI-TECH Software Omniscient Code Generator (Lite mode) build 49521"
    85  0016                     CCPR1H equ 016h ;# 
    86                           opt subtitle "HI-TECH Software Omniscient Code Generator (Lite mode) build 49521"
    87  0017                     CCP1CON equ 017h ;# 
    88                           opt subtitle "HI-TECH Software Omniscient Code Generator (Lite mode) build 49521"
    89  0018                     RCSTA equ 018h ;# 
    90                           opt subtitle "HI-TECH Software Omniscient Code Generator (Lite mode) build 49521"
    91  0019                     TXREG equ 019h ;# 
    92                           opt subtitle "HI-TECH Software Omniscient Code Generator (Lite mode) build 49521"
    93  001A                     RCREG equ 01Ah ;# 
    94                           opt subtitle "HI-TECH Software Omniscient Code Generator (Lite mode) build 49521"
    95  001E                     ADRESH equ 01Eh ;# 
    96                           opt subtitle "HI-TECH Software Omniscient Code Generator (Lite mode) build 49521"
    97  001F                     ADCON0 equ 01Fh ;# 
    98                           opt subtitle "HI-TECH Software Omniscient Code Generator (Lite mode) build 49521"
    99  0081                     OPTION_REG equ 081h ;# 
   100                           opt subtitle "HI-TECH Software Omniscient Code Generator (Lite mode) build 49521"
   101  0085                     TRISA equ 085h ;# 
   102                           opt subtitle "HI-TECH Software Omniscient Code Generator (Lite mode) build 49521"
   103  0086                     TRISB equ 086h ;# 
   104                           opt subtitle "HI-TECH Software Omniscient Code Generator (Lite mode) build 49521"
   105  008C                     PIE1 equ 08Ch ;# 
   106                           opt subtitle "HI-TECH Software Omniscient Code Generator (Lite mode) build 49521"
   107  008D                     PIE2 equ 08Dh ;# 
   108                           opt subtitle "HI-TECH Software Omniscient Code Generator (Lite mode) build 49521"
   109  008E                     PCON equ 08Eh ;# 
   110                           opt subtitle "HI-TECH Software Omniscient Code Generator (Lite mode) build 49521"
   111  008F                     OSCCON equ 08Fh ;# 
   112                           opt subtitle "HI-TECH Software Omniscient Code Generator (Lite mode) build 49521"
   113  0090                     OSCTUNE equ 090h ;# 
   114                           opt subtitle "HI-TECH Software Omniscient Code Generator (Lite mode) build 49521"
   115  0092                     PR2 equ 092h ;# 
   116                           opt subtitle "HI-TECH Software Omniscient Code Generator (Lite mode) build 49521"
   117  0093                     SSPADD equ 093h ;# 
   118                           opt subtitle "HI-TECH Software Omniscient Code Generator (Lite mode) build 49521"
   119  0094                     SSPSTAT equ 094h ;# 
   120                           opt subtitle "HI-TECH Software Omniscient Code Generator (Lite mode) build 49521"
   121  0098                     TXSTA equ 098h ;# 
   122                           opt subtitle "HI-TECH Software Omniscient Code Generator (Lite mode) build 49521"
   123  0099                     SPBRG equ 099h ;# 
   124                           opt subtitle "HI-TECH Software Omniscient Code Generator (Lite mode) build 49521"
   125  009B                     ANSEL equ 09Bh ;# 
   126                           opt subtitle "HI-TECH Software Omniscient Code Generator (Lite mode) build 49521"
   127  009C                     CMCON equ 09Ch ;# 
   128                           opt subtitle "HI-TECH Software Omniscient Code Generator (Lite mode) build 49521"
   129  009D                     CVRCON equ 09Dh ;# 
   130                           opt subtitle "HI-TECH Software Omniscient Code Generator (Lite mode) build 49521"
   131  009E                     ADRESL equ 09Eh ;# 
   132                           opt subtitle "HI-TECH Software Omniscient Code Generator (Lite mode) build 49521"
   133  009F                     ADCON1 equ 09Fh ;# 
   134                           opt subtitle "HI-TECH Software Omniscient Code Generator (Lite mode) build 49521"
   135  0105                     WDTCON equ 0105h ;# 
   136                           opt subtitle "HI-TECH Software Omniscient Code Generator (Lite mode) build 49521"
   137  010C                     EEDATA equ 010Ch ;# 
   138                           opt subtitle "HI-TECH Software Omniscient Code Generator (Lite mode) build 49521"
   139  010D                     EEADR equ 010Dh ;# 
   140                           opt subtitle "HI-TECH Software Omniscient Code Generator (Lite mode) build 49521"
   141  010E                     EEDATH equ 010Eh ;# 
   142                           opt subtitle "HI-TECH Software Omniscient Code Generator (Lite mode) build 49521"
   143  010F                     EEADRH equ 010Fh ;# 
   144                           opt subtitle "HI-TECH Software Omniscient Code Generator (Lite mode) build 49521"
   145  018C                     EECON1 equ 018Ch ;# 
   146                           opt subtitle "HI-TECH Software Omniscient Code Generator (Lite mode) build 49521"
   147  018D                     EECON2 equ 018Dh ;# 
   148                           opt subtitle "HI-TECH Software Omniscient Code Generator (Lite mode) build 49521"
   149  0000                     INDF equ 00h ;# 
   150                           opt subtitle "HI-TECH Software Omniscient Code Generator (Lite mode) build 49521"
   151  0001                     TMR0 equ 01h ;# 
   152                           opt subtitle "HI-TECH Software Omniscient Code Generator (Lite mode) build 49521"
   153  0002                     PCL equ 02h ;# 
   154                           opt subtitle "HI-TECH Software Omniscient Code Generator (Lite mode) build 49521"
   155  0003                     STATUS equ 03h ;# 
   156                           opt subtitle "HI-TECH Software Omniscient Code Generator (Lite mode) build 49521"
   157  0004                     FSR equ 04h ;# 
   158                           opt subtitle "HI-TECH Software Omniscient Code Generator (Lite mode) build 49521"
   159  0005                     PORTA equ 05h ;# 
   160                           opt subtitle "HI-TECH Software Omniscient Code Generator (Lite mode) build 49521"
   161  0006                     PORTB equ 06h ;# 
   162                           opt subtitle "HI-TECH Software Omniscient Code Generator (Lite mode) build 49521"
   163  000A                     PCLATH equ 0Ah ;# 
   164                           opt subtitle "HI-TECH Software Omniscient Code Generator (Lite mode) build 49521"
   165  000B                     INTCON equ 0Bh ;# 
   166                           opt subtitle "HI-TECH Software Omniscient Code Generator (Lite mode) build 49521"
   167  000C                     PIR1 equ 0Ch ;# 
   168                           opt subtitle "HI-TECH Software Omniscient Code Generator (Lite mode) build 49521"
   169  000D                     PIR2 equ 0Dh ;# 
   170                           opt subtitle "HI-TECH Software Omniscient Code Generator (Lite mode) build 49521"
   171  000E                     TMR1 equ 0Eh ;# 
   172                           opt subtitle "HI-TECH Software Omniscient Code Generator (Lite mode) build 49521"
   173  000E                     TMR1L equ 0Eh ;# 
   174                           opt subtitle "HI-TECH Software Omniscient Code Generator (Lite mode) build 49521"
   175  000F                     TMR1H equ 0Fh ;# 
   176                           opt subtitle "HI-TECH Software Omniscient Code Generator (Lite mode) build 49521"
   177  0010                     T1CON equ 010h ;# 
   178                           opt subtitle "HI-TECH Software Omniscient Code Generator (Lite mode) build 49521"
   179  0011                     TMR2 equ 011h ;# 
   180                           opt subtitle "HI-TECH Software Omniscient Code Generator (Lite mode) build 49521"
   181  0012                     T2CON equ 012h ;# 
   182                           opt subtitle "HI-TECH Software Omniscient Code Generator (Lite mode) build 49521"
   183  0013                     SSPBUF equ 013h ;# 
   184                           opt subtitle "HI-TECH Software Omniscient Code Generator (Lite mode) build 49521"
   185  0014                     SSPCON equ 014h ;# 
   186                           opt subtitle "HI-TECH Software Omniscient Code Generator (Lite mode) build 49521"
   187  0015                     CCPR1 equ 015h ;# 
   188                           opt subtitle "HI-TECH Software Omniscient Code Generator (Lite mode) build 49521"
   189  0015                     CCPR1L equ 015h ;# 
   190                           opt subtitle "HI-TECH Software Omniscient Code Generator (Lite mode) build 49521"
   191  0016                     CCPR1H equ 016h ;# 
   192                           opt subtitle "HI-TECH Software Omniscient Code Generator (Lite mode) build 49521"
   193  0017                     CCP1CON equ 017h ;# 
   194                           opt subtitle "HI-TECH Software Omniscient Code Generator (Lite mode) build 49521"
   195  0018                     RCSTA equ 018h ;# 
   196                           opt subtitle "HI-TECH Software Omniscient Code Generator (Lite mode) build 49521"
   197  0019                     TXREG equ 019h ;# 
   198                           opt subtitle "HI-TECH Software Omniscient Code Generator (Lite mode) build 49521"
   199  001A                     RCREG equ 01Ah ;# 
   200                           opt subtitle "HI-TECH Software Omniscient Code Generator (Lite mode) build 49521"
   201  001E                     ADRESH equ 01Eh ;# 
   202                           opt subtitle "HI-TECH Software Omniscient Code Generator (Lite mode) build 49521"
   203  001F                     ADCON0 equ 01Fh ;# 
   204                           opt subtitle "HI-TECH Software Omniscient Code Generator (Lite mode) build 49521"
   205  0081                     OPTION_REG equ 081h ;# 
   206                           opt subtitle "HI-TECH Software Omniscient Code Generator (Lite mode) build 49521"
   207  0085                     TRISA equ 085h ;# 
   208                           opt subtitle "HI-TECH Software Omniscient Code Generator (Lite mode) build 49521"
   209  0086                     TRISB equ 086h ;# 
   210                           opt subtitle "HI-TECH Software Omniscient Code Generator (Lite mode) build 49521"
   211  008C                     PIE1 equ 08Ch ;# 
   212                           opt subtitle "HI-TECH Software Omniscient Code Generator (Lite mode) build 49521"
   213  008D                     PIE2 equ 08Dh ;# 
   214                           opt subtitle "HI-TECH Software Omniscient Code Generator (Lite mode) build 49521"
   215  008E                     PCON equ 08Eh ;# 
   216                           opt subtitle "HI-TECH Software Omniscient Code Generator (Lite mode) build 49521"
   217  008F                     OSCCON equ 08Fh ;# 
   218                           opt subtitle "HI-TECH Software Omniscient Code Generator (Lite mode) build 49521"
   219  0090                     OSCTUNE equ 090h ;# 
   220                           opt subtitle "HI-TECH Software Omniscient Code Generator (Lite mode) build 49521"
   221  0092                     PR2 equ 092h ;# 
   222                           opt subtitle "HI-TECH Software Omniscient Code Generator (Lite mode) build 49521"
   223  0093                     SSPADD equ 093h ;# 
   224                           opt subtitle "HI-TECH Software Omniscient Code Generator (Lite mode) build 49521"
   225  0094                     SSPSTAT equ 094h ;# 
   226                           opt subtitle "HI-TECH Software Omniscient Code Generator (Lite mode) build 49521"
   227  0098                     TXSTA equ 098h ;# 
   228                           opt subtitle "HI-TECH Software Omniscient Code Generator (Lite mode) build 49521"
   229  0099                     SPBRG equ 099h ;# 
   230                           opt subtitle "HI-TECH Software Omniscient Code Generator (Lite mode) build 49521"
   231  009B                     ANSEL equ 09Bh ;# 
   232                           opt subtitle "HI-TECH Software Omniscient Code Generator (Lite mode) build 49521"
   233  009C                     CMCON equ 09Ch ;# 
   234                           opt subtitle "HI-TECH Software Omniscient Code Generator (Lite mode) build 49521"
   235  009D                     CVRCON equ 09Dh ;# 
   236                           opt subtitle "HI-TECH Software Omniscient Code Generator (Lite mode) build 49521"
   237  009E                     ADRESL equ 09Eh ;# 
   238                           opt subtitle "HI-TECH Software Omniscient Code Generator (Lite mode) build 49521"
   239  009F                     ADCON1 equ 09Fh ;# 
   240                           opt subtitle "HI-TECH Software Omniscient Code Generator (Lite mode) build 49521"
   241  0105                     WDTCON equ 0105h ;# 
   242                           opt subtitle "HI-TECH Software Omniscient Code Generator (Lite mode) build 49521"
   243  010C                     EEDATA equ 010Ch ;# 
   244                           opt subtitle "HI-TECH Software Omniscient Code Generator (Lite mode) build 49521"
   245  010D                     EEADR equ 010Dh ;# 
   246                           opt subtitle "HI-TECH Software Omniscient Code Generator (Lite mode) build 49521"
   247  010E                     EEDATH equ 010Eh ;# 
   248                           opt subtitle "HI-TECH Software Omniscient Code Generator (Lite mode) build 49521"
   249  010F                     EEADRH equ 010Fh ;# 
   250                           opt subtitle "HI-TECH Software Omniscient Code Generator (Lite mode) build 49521"
   251  018C                     EECON1 equ 018Ch ;# 
   252                           opt subtitle "HI-TECH Software Omniscient Code Generator (Lite mode) build 49521"
   253  018D                     EECON2 equ 018Dh ;# 
   254                           opt subtitle "HI-TECH Software Omniscient Code Generator (Lite mode) build 49521"
   255  0000                     INDF equ 00h ;# 
   256                           opt subtitle "HI-TECH Software Omniscient Code Generator (Lite mode) build 49521"
   257  0001                     TMR0 equ 01h ;# 
   258                           opt subtitle "HI-TECH Software Omniscient Code Generator (Lite mode) build 49521"
   259  0002                     PCL equ 02h ;# 
   260                           opt subtitle "HI-TECH Software Omniscient Code Generator (Lite mode) build 49521"
   261  0003                     STATUS equ 03h ;# 
   262                           opt subtitle "HI-TECH Software Omniscient Code Generator (Lite mode) build 49521"
   263  0004                     FSR equ 04h ;# 
   264                           opt subtitle "HI-TECH Software Omniscient Code Generator (Lite mode) build 49521"
   265  0005                     PORTA equ 05h ;# 
   266                           opt subtitle "HI-TECH Software Omniscient Code Generator (Lite mode) build 49521"
   267  0006                     PORTB equ 06h ;# 
   268                           opt subtitle "HI-TECH Software Omniscient Code Generator (Lite mode) build 49521"
   269  000A                     PCLATH equ 0Ah ;# 
   270                           opt subtitle "HI-TECH Software Omniscient Code Generator (Lite mode) build 49521"
   271  000B                     INTCON equ 0Bh ;# 
   272                           opt subtitle "HI-TECH Software Omniscient Code Generator (Lite mode) build 49521"
   273  000C                     PIR1 equ 0Ch ;# 
   274                           opt subtitle "HI-TECH Software Omniscient Code Generator (Lite mode) build 49521"
   275  000D                     PIR2 equ 0Dh ;# 
   276                           opt subtitle "HI-TECH Software Omniscient Code Generator (Lite mode) build 49521"
   277  000E                     TMR1 equ 0Eh ;# 
   278                           opt subtitle "HI-TECH Software Omniscient Code Generator (Lite mode) build 49521"
   279  000E                     TMR1L equ 0Eh ;# 
   280                           opt subtitle "HI-TECH Software Omniscient Code Generator (Lite mode) build 49521"
   281  000F                     TMR1H equ 0Fh ;# 
   282                           opt subtitle "HI-TECH Software Omniscient Code Generator (Lite mode) build 49521"
   283  0010                     T1CON equ 010h ;# 
   284                           opt subtitle "HI-TECH Software Omniscient Code Generator (Lite mode) build 49521"
   285  0011                     TMR2 equ 011h ;# 
   286                           opt subtitle "HI-TECH Software Omniscient Code Generator (Lite mode) build 49521"
   287  0012                     T2CON equ 012h ;# 
   288                           opt subtitle "HI-TECH Software Omniscient Code Generator (Lite mode) build 49521"
   289  0013                     SSPBUF equ 013h ;# 
   290                           opt subtitle "HI-TECH Software Omniscient Code Generator (Lite mode) build 49521"
   291  0014                     SSPCON equ 014h ;# 
   292                           opt subtitle "HI-TECH Software Omniscient Code Generator (Lite mode) build 49521"
   293  0015                     CCPR1 equ 015h ;# 
   294                           opt subtitle "HI-TECH Software Omniscient Code Generator (Lite mode) build 49521"
   295  0015                     CCPR1L equ 015h ;# 
   296                           opt subtitle "HI-TECH Software Omniscient Code Generator (Lite mode) build 49521"
   297  0016                     CCPR1H equ 016h ;# 
   298                           opt subtitle "HI-TECH Software Omniscient Code Generator (Lite mode) build 49521"
   299  0017                     CCP1CON equ 017h ;# 
   300                           opt subtitle "HI-TECH Software Omniscient Code Generator (Lite mode) build 49521"
   301  0018                     RCSTA equ 018h ;# 
   302                           opt subtitle "HI-TECH Software Omniscient Code Generator (Lite mode) build 49521"
   303  0019                     TXREG equ 019h ;# 
   304                           opt subtitle "HI-TECH Software Omniscient Code Generator (Lite mode) build 49521"
   305  001A                     RCREG equ 01Ah ;# 
   306                           opt subtitle "HI-TECH Software Omniscient Code Generator (Lite mode) build 49521"
   307  001E                     ADRESH equ 01Eh ;# 
   308                           opt subtitle "HI-TECH Software Omniscient Code Generator (Lite mode) build 49521"
   309  001F                     ADCON0 equ 01Fh ;# 
   310                           opt subtitle "HI-TECH Software Omniscient Code Generator (Lite mode) build 49521"
   311  0081                     OPTION_REG equ 081h ;# 
   312                           opt subtitle "HI-TECH Software Omniscient Code Generator (Lite mode) build 49521"
   313  0085                     TRISA equ 085h ;# 
   314                           opt subtitle "HI-TECH Software Omniscient Code Generator (Lite mode) build 49521"
   315  0086                     TRISB equ 086h ;# 
   316                           opt subtitle "HI-TECH Software Omniscient Code Generator (Lite mode) build 49521"
   317  008C                     PIE1 equ 08Ch ;# 
   318                           opt subtitle "HI-TECH Software Omniscient Code Generator (Lite mode) build 49521"
   319  008D                     PIE2 equ 08Dh ;# 
   320                           opt subtitle "HI-TECH Software Omniscient Code Generator (Lite mode) build 49521"
   321  008E                     PCON equ 08Eh ;# 
   322                           opt subtitle "HI-TECH Software Omniscient Code Generator (Lite mode) build 49521"
   323  008F                     OSCCON equ 08Fh ;# 
   324                           opt subtitle "HI-TECH Software Omniscient Code Generator (Lite mode) build 49521"
   325  0090                     OSCTUNE equ 090h ;# 
   326                           opt subtitle "HI-TECH Software Omniscient Code Generator (Lite mode) build 49521"
   327  0092                     PR2 equ 092h ;# 
   328                           opt subtitle "HI-TECH Software Omniscient Code Generator (Lite mode) build 49521"
   329  0093                     SSPADD equ 093h ;# 
   330                           opt subtitle "HI-TECH Software Omniscient Code Generator (Lite mode) build 49521"
   331  0094                     SSPSTAT equ 094h ;# 
   332                           opt subtitle "HI-TECH Software Omniscient Code Generator (Lite mode) build 49521"
   333  0098                     TXSTA equ 098h ;# 
   334                           opt subtitle "HI-TECH Software Omniscient Code Generator (Lite mode) build 49521"
   335  0099                     SPBRG equ 099h ;# 
   336                           opt subtitle "HI-TECH Software Omniscient Code Generator (Lite mode) build 49521"
   337  009B                     ANSEL equ 09Bh ;# 
   338                           opt subtitle "HI-TECH Software Omniscient Code Generator (Lite mode) build 49521"
   339  009C                     CMCON equ 09Ch ;# 
   340                           opt subtitle "HI-TECH Software Omniscient Code Generator (Lite mode) build 49521"
   341  009D                     CVRCON equ 09Dh ;# 
   342                           opt subtitle "HI-TECH Software Omniscient Code Generator (Lite mode) build 49521"
   343  009E                     ADRESL equ 09Eh ;# 
   344                           opt subtitle "HI-TECH Software Omniscient Code Generator (Lite mode) build 49521"
   345  009F                     ADCON1 equ 09Fh ;# 
   346                           opt subtitle "HI-TECH Software Omniscient Code Generator (Lite mode) build 49521"
   347  0105                     WDTCON equ 0105h ;# 
   348                           opt subtitle "HI-TECH Software Omniscient Code Generator (Lite mode) build 49521"
   349  010C                     EEDATA equ 010Ch ;# 
   350                           opt subtitle "HI-TECH Software Omniscient Code Generator (Lite mode) build 49521"
   351  010D                     EEADR equ 010Dh ;# 
   352                           opt subtitle "HI-TECH Software Omniscient Code Generator (Lite mode) build 49521"
   353  010E                     EEDATH equ 010Eh ;# 
   354                           opt subtitle "HI-TECH Software Omniscient Code Generator (Lite mode) build 49521"
   355  010F                     EEADRH equ 010Fh ;# 
   356                           opt subtitle "HI-TECH Software Omniscient Code Generator (Lite mode) build 49521"
   357  018C                     EECON1 equ 018Ch ;# 
   358                           opt subtitle "HI-TECH Software Omniscient Code Generator (Lite mode) build 49521"
   359  018D                     EECON2 equ 018Dh ;# 
   360                           opt subtitle "HI-TECH Software Omniscient Code Generator (Lite mode) build 49521"
   361                           
   362                           opt pagewidth 120
   363                           
   364                           	opt lm
   365                           
   366                           	processor	16F88
   367                           clrc	macro
   368                           	bcf	3,0
   369                           	endm
   370                           clrz	macro
   371                           	bcf	3,2
   372                           	endm
   373                           setc	macro
   374                           	bsf	3,0
   375                           	endm
   376                           setz	macro
   377                           	bsf	3,2
   378                           	endm
   379                           skipc	macro
   380                           	btfss	3,0
   381                           	endm
   382                           skipz	macro
   383                           	btfss	3,2
   384                           	endm
   385                           skipnc	macro
   386                           	btfsc	3,0
   387  0515                     __pidataBANK0:
   388                           opt subtitle "HI-TECH Software Omniscient Code Generator (Lite mode) build 49521"
   389                           
   390                           opt pagewidth 120
   391                           
   392  0515  3400               	retlw	0
   393  0516  3440               	retlw	040h
   394  0517  3414               	retlw	014h
   395  0518  3454               	retlw	054h
   396                           opt subtitle "HI-TECH Software Omniscient Code Generator (Lite mode) build 49521"
   397                           
   398                           opt pagewidth 120
   399  0519  3410               	retlw	010h
   400                           opt subtitle "HI-TECH Software Omniscient Code Generator (Lite mode) build 49521"
   401                           
   402                           opt pagewidth 120
   403  051A  3402               	retlw	02h
   404                           opt subtitle "HI-TECH Software Omniscient Code Generator (Lite mode) build 49521"
   405                           
   406                           opt pagewidth 120
   407  0002                     __pstrings:
   408                           opt subtitle "HI-TECH Software Omniscient Code Generator (Lite mode) build 49521"
   409  0002                     stringtab:
   410                           opt subtitle "HI-TECH Software Omniscient Code Generator (Lite mode) build 49521"
   411  0002                     __stringtab:
   412                           opt subtitle "HI-TECH Software Omniscient Code Generator (Lite mode) build 49521"
   413  0002                     stringcode:stringdir:
      + 0002                     stringdir:	
   414  0002  3000               movlw high(stringdir)
   415  0003  008A               movwf pclath
   416  0004  0804               movf fsr,w
   417  0005  0A84               incf fsr
   418  0006  0782               	addwf pc
   419  0007                     __stringbase:
   420  0007  3400               	retlw	0
   421                           opt subtitle "HI-TECH Software Omniscient Code Generator (Lite mode) build 49521"
   422                           
   423  0008                     __end_of__stringtab:
   424                           opt subtitle "HI-TECH Software Omniscient Code Generator (Lite mode) build 49521"
   425                           
   426  0008                     _arrowd:
   427  0008  3404               	retlw	04h
   428  0009  3404               	retlw	04h
   429  000A  3404               	retlw	04h
   430  000B  3404               	retlw	04h
   431  000C  3415               	retlw	015h
   432  000D  340E               	retlw	0Eh
   433  000E  3404               	retlw	04h
   434  000F  3400               	retlw	0
   435                           opt subtitle "HI-TECH Software Omniscient Code Generator (Lite mode) build 49521"
   436  0010                     __end_of_arrowd:
   437                           opt subtitle "HI-TECH Software Omniscient Code Generator (Lite mode) build 49521"
   438                           
   439                           opt pagewidth 120
   440                           
   441  0010                     _arrowl:
   442  0010  3402               	retlw	02h
   443  0011  3404               	retlw	04h
   444  0012  3408               	retlw	08h
   445  0013  341F               	retlw	01Fh
   446  0014  3408               	retlw	08h
   447  0015  3404               	retlw	04h
   448  0016  3402               	retlw	02h
   449  0017  3400               	retlw	0
   450                           opt subtitle "HI-TECH Software Omniscient Code Generator (Lite mode) build 49521"
   451  0018                     __end_of_arrowl:
   452                           opt subtitle "HI-TECH Software Omniscient Code Generator (Lite mode) build 49521"
   453                           
   454                           opt pagewidth 120
   455                           
   456  0018                     _arrowr:
   457  0018  3408               	retlw	08h
   458  0019  3404               	retlw	04h
   459  001A  3402               	retlw	02h
   460  001B  341F               	retlw	01Fh
   461  001C  3402               	retlw	02h
   462  001D  3404               	retlw	04h
   463  001E  3408               	retlw	08h
   464  001F  3400               	retlw	0
   465                           opt subtitle "HI-TECH Software Omniscient Code Generator (Lite mode) build 49521"
   466  0020                     __end_of_arrowr:
   467                           opt subtitle "HI-TECH Software Omniscient Code Generator (Lite mode) build 49521"
   468                           
   469                           opt pagewidth 120
   470                           
   471  0020                     _arrowu:
   472  0020  3404               	retlw	04h
   473  0021  340E               	retlw	0Eh
   474  0022  3415               	retlw	015h
   475  0023  3404               	retlw	04h
   476  0024  3404               	retlw	04h
   477  0025  3404               	retlw	04h
   478  0026  3404               	retlw	04h
   479  0027  3400               	retlw	0
   480                           opt subtitle "HI-TECH Software Omniscient Code Generator (Lite mode) build 49521"
   481  0028                     __end_of_arrowu:
   482                           opt subtitle "HI-TECH Software Omniscient Code Generator (Lite mode) build 49521"
   483                           
   484                           opt pagewidth 120
   485                           
   486                           	opt lm
   487                           
   488                           	processor	16F88
   489                           clrc	macro
   490  002B                     __pnvBANK0:
   491  002B                     _iomode:
   492  002B                            ds      1
   493                           opt subtitle "HI-TECH Software Omniscient Code Generator (Lite mode) build 49521"
   494                           
   495  0005                     _PORTA	set	0x5
   496                           opt subtitle "HI-TECH Software Omniscient Code Generator (Lite mode) build 49521"
   497  0005                     _PORTAbits	set	0x5
   498                           opt subtitle "HI-TECH Software Omniscient Code Generator (Lite mode) build 49521"
   499  0006                     _PORTBbits	set	0x6
   500                           opt subtitle "HI-TECH Software Omniscient Code Generator (Lite mode) build 49521"
   501  009B                     _ANSEL	set	0x9B
   502                           opt subtitle "HI-TECH Software Omniscient Code Generator (Lite mode) build 49521"
   503  0085                     _TRISA	set	0x85
   504                           opt subtitle "HI-TECH Software Omniscient Code Generator (Lite mode) build 49521"
   505  0086                     _TRISB	set	0x86
   506                           opt subtitle "HI-TECH Software Omniscient Code Generator (Lite mode) build 49521"
   507  0086                     _TRISBbits	set	0x86
   508                           opt subtitle "HI-TECH Software Omniscient Code Generator (Lite mode) build 49521"
   509                           
   510  0028                     __stringdata:
   511                           opt subtitle "HI-TECH Software Omniscient Code Generator (Lite mode) build 49521"
   512  0028                     STR_1:	
   513  0028  344C               	retlw	76	;'L'
   514  0029  3443               	retlw	67	;'C'
   515  002A  3444               	retlw	68	;'D'
   516  002B  3420               	retlw	32	;' '
   517  002C  3454               	retlw	84	;'T'
   518  002D  3465               	retlw	101	;'e'
   519  002E  3473               	retlw	115	;'s'
   520  002F  3474               	retlw	116	;'t'
   521  0030  3420               	retlw	32	;' '
   522  0031  3450               	retlw	80	;'P'
   523  0032  3472               	retlw	114	;'r'
   524  0033  346F               	retlw	111	;'o'
   525  0034  3467               	retlw	103	;'g'
   526  0035  3472               	retlw	114	;'r'
   527  0036  3461               	retlw	97	;'a'
   528  0037  346D               	retlw	109	;'m'
   529  0038  3400               	retlw	0
   530                           opt subtitle "HI-TECH Software Omniscient Code Generator (Lite mode) build 49521"
   531                           
   532  0039                     STR_2:	
   533  0039  3448               	retlw	72	;'H'
   534  003A  3465               	retlw	101	;'e'
   535  003B  346C               	retlw	108	;'l'
   536  003C  346C               	retlw	108	;'l'
   537  003D  346F               	retlw	111	;'o'
   538  003E  3420               	retlw	32	;' '
   539  003F  3457               	retlw	87	;'W'
   540  0040  346F               	retlw	111	;'o'
   541  0041  3472               	retlw	114	;'r'
   542  0042  346C               	retlw	108	;'l'
   543  0043  3464               	retlw	100	;'d'
   544  0044  3400               	retlw	0
   545                           opt subtitle "HI-TECH Software Omniscient Code Generator (Lite mode) build 49521"
   546                           
   547  0045                     __end_of__stringdata:
   548                           opt subtitle "HI-TECH Software Omniscient Code Generator (Lite mode) build 49521"
   549                           
   550  0000                     __CFG_BOREN$OFF equ 0x0
   551                           opt subtitle "HI-TECH Software Omniscient Code Generator (Lite mode) build 49521"
   552  0000                     __CFG_CPD$OFF equ 0x0
   553                           opt subtitle "HI-TECH Software Omniscient Code Generator (Lite mode) build 49521"
   554  0000                     __CFG_CCPMX$RB0 equ 0x0
   555                           opt subtitle "HI-TECH Software Omniscient Code Generator (Lite mode) build 49521"
   556  0000                     __CFG_WRT$OFF equ 0x0
   557                           opt subtitle "HI-TECH Software Omniscient Code Generator (Lite mode) build 49521"
   558  0000                     __CFG_FOSC$XT equ 0x0
   559                           opt subtitle "HI-TECH Software Omniscient Code Generator (Lite mode) build 49521"
   560  0000                     __CFG_MCLRE$ON equ 0x0
   561                           opt subtitle "HI-TECH Software Omniscient Code Generator (Lite mode) build 49521"
   562  0000                     __CFG_WDTE$OFF equ 0x0
   563                           opt subtitle "HI-TECH Software Omniscient Code Generator (Lite mode) build 49521"
   564  0000                     __CFG_CP$OFF equ 0x0
   565                           opt subtitle "HI-TECH Software Omniscient Code Generator (Lite mode) build 49521"
   566  0000                     __CFG_LVP$OFF equ 0x0
   567                           opt subtitle "HI-TECH Software Omniscient Code Generator (Lite mode) build 49521"
   568  0000                     __CFG_PWRTE$OFF equ 0x0
   569                           opt subtitle "HI-TECH Software Omniscient Code Generator (Lite mode) build 49521"
   570  0000                     __CFG_IESO$OFF equ 0x0
   571                           opt subtitle "HI-TECH Software Omniscient Code Generator (Lite mode) build 49521"
   572  0000                     __CFG_FCMEN$OFF equ 0x0
   573                           opt subtitle "HI-TECH Software Omniscient Code Generator (Lite mode) build 49521"
   574                           
   575                           opt pagewidth 120
   576                           
   577  054E                     start_initialization:
   578                           opt subtitle "HI-TECH Software Omniscient Code Generator (Lite mode) build 49521"
   579                           
   580  054E                     __initialization:
   581                           opt subtitle "HI-TECH Software Omniscient Code Generator (Lite mode) build 49521"
   582                           
   583  002C                     __pbssBANK0:
   584  002C                     _dispctrl:
   585  002C                            ds      1
   586                           opt subtitle "HI-TECH Software Omniscient Code Generator (Lite mode) build 49521"
   587                           
   588                           opt pagewidth 120
   589  0020                     __pdataBANK0:
   590                           opt subtitle "HI-TECH Software Omniscient Code Generator (Lite mode) build 49521"
   591                           
   592  0020                     _rowaddr:
   593  0020                            ds      4
   594                           opt subtitle "HI-TECH Software Omniscient Code Generator (Lite mode) build 49521"
   595                           
   596                           opt pagewidth 120
   597                           
   598  0024                     _lcdcolumns:
   599  0024                            ds      1
   600                           opt subtitle "HI-TECH Software Omniscient Code Generator (Lite mode) build 49521"
   601                           
   602                           opt pagewidth 120
   603                           
   604  0025                     _lcdrows:
   605  0025                            ds      1
   606                           opt subtitle "HI-TECH Software Omniscient Code Generator (Lite mode) build 49521"
   607                           
   608                           opt pagewidth 120
   609  054E  01AC               	clrf	((__pbssBANK0)+0)&07Fh
   610                           opt subtitle "HI-TECH Software Omniscient Code Generator (Lite mode) build 49521"
   611                           
   612                           opt pagewidth 120
   613  054F  118A  2515  118A   	fcall	__pidataBANK0+0		;fetch initializer
   614  0552  00A0               	movwf	__pdataBANK0+0&07fh		
   615  0553  118A  2516  118A   	fcall	__pidataBANK0+1		;fetch initializer
   616  0556  00A1               	movwf	__pdataBANK0+1&07fh		
   617  0557  118A  2517  118A   	fcall	__pidataBANK0+2		;fetch initializer
   618  055A  00A2               	movwf	__pdataBANK0+2&07fh		
   619  055B  118A  2518  118A   	fcall	__pidataBANK0+3		;fetch initializer
   620  055E  00A3               	movwf	__pdataBANK0+3&07fh		
   621  055F  118A  2519  118A   	fcall	__pidataBANK0+4		;fetch initializer
   622  0562  00A4               	movwf	__pdataBANK0+4&07fh		
   623  0563  118A  251A  118A   	fcall	__pidataBANK0+5		;fetch initializer
   624  0566  00A5               	movwf	__pdataBANK0+5&07fh		
   625                           opt subtitle "HI-TECH Software Omniscient Code Generator (Lite mode) build 49521"
   626                           
   627                           opt pagewidth 120
   628                           
   629                           	opt lm
   630  0567                     end_of_initialization:
   631  0567                     __end_of__initialization:clrf status
      + 0567  0183               	clrf	3
   632  0568  118A  2F4A         ljmp _main	;jump to C main() function
   633                           opt subtitle "HI-TECH Software Omniscient Code Generator (Lite mode) build 49521"
   634                           
   635  0070                     __pcstackCOMMON:
   636  0070                     ?_lcd_clear:	; 0 bytes @ 0x0
   637  0070                     ?_lcd_on:	; 0 bytes @ 0x0
   638  0070                     ?_lcd_puts:	; 0 bytes @ 0x0
   639  0070                     ?_lcd_iowrite4:	; 0 bytes @ 0x0
   640                           opt subtitle "HI-TECH Software Omniscient Code Generator (Lite mode) build 49521"
   641  0070                     ?_lcd_ioset:	; 0 bytes @ 0x0
   642  0070                     ?_lcd_iowrite8:	; 0 bytes @ 0x0
   643  0070                     ?_main:	; 0 bytes @ 0x0
   644  0070                     ?_lcd_ioinit:	; 1 bytes @ 0x0
   645  0070                     lcd_ioinit@iodata:	; 1 bytes @ 0x0
   646                           opt subtitle "HI-TECH Software Omniscient Code Generator (Lite mode) build 49521"
   647  0070                     lcd_ioset@level:	; 1 bytes @ 0x0
   648  0070                     	ds	1
   649  0071                     ??_lcd_ioset:	; 0 bytes @ 0x1
   650                           opt subtitle "HI-TECH Software Omniscient Code Generator (Lite mode) build 49521"
   651  0071                     lcd_ioset@pin:	; 1 bytes @ 0x1
   652  0071                     	ds	1
   653  0072                     ??_lcd_ioinit:	; 0 bytes @ 0x2
   654  0072                     ??_lcd_iowrite4:	; 0 bytes @ 0x2
   655  0072                     ??_lcd_iowrite8:	; 0 bytes @ 0x2
   656  0072                     	ds	1
   657                           opt subtitle "HI-TECH Software Omniscient Code Generator (Lite mode) build 49521"
   658  0073                     lcd_ioinit@i:	; 1 bytes @ 0x3
   659                           opt subtitle "HI-TECH Software Omniscient Code Generator (Lite mode) build 49521"
   660  0073                     lcd_iowrite8@cData:	; 1 bytes @ 0x3
   661  0073                     	ds	1
   662                           opt subtitle "HI-TECH Software Omniscient Code Generator (Lite mode) build 49521"
   663  0074                     lcd_iowrite4@data:	; 1 bytes @ 0x4
   664  0074                     	ds	1
   665                           opt subtitle "HI-TECH Software Omniscient Code Generator (Lite mode) build 49521"
   666  0075                     lcd_iowrite4@xPortValue:	; 1 bytes @ 0x5
   667  0075                     	ds	1
   668                           opt subtitle "HI-TECH Software Omniscient Code Generator (Lite mode) build 49521"
   669  0076                     ?_lcd_send:	; 0 bytes @ 0x6
   670                           opt subtitle "HI-TECH Software Omniscient Code Generator (Lite mode) build 49521"
   671  0076                     lcd_send@rs:	; 1 bytes @ 0x6
   672  0076                     	ds	1
   673  0077                     ??_lcd_send:	; 0 bytes @ 0x7
   674  0077                     	ds	1
   675                           opt subtitle "HI-TECH Software Omniscient Code Generator (Lite mode) build 49521"
   676  0078                     lcd_send@data:	; 1 bytes @ 0x8
   677  0078                     	ds	1
   678                           opt subtitle "HI-TECH Software Omniscient Code Generator (Lite mode) build 49521"
   679  0079                     ?_lcd_create_char:	; 0 bytes @ 0x9
   680  0079                     ??_lcd_clear:	; 0 bytes @ 0x9
   681  0079                     ??_lcd_on:	; 0 bytes @ 0x9
   682  0079                     ??_lcd_puts:	; 0 bytes @ 0x9
   683                           opt subtitle "HI-TECH Software Omniscient Code Generator (Lite mode) build 49521"
   684  0079                     ?_lcd_goto:	; 0 bytes @ 0x9
   685                           opt subtitle "HI-TECH Software Omniscient Code Generator (Lite mode) build 49521"
   686  0079                     ?_lcd_init:	; 1 bytes @ 0x9
   687                           opt subtitle "HI-TECH Software Omniscient Code Generator (Lite mode) build 49521"
   688  0079                     lcd_init@cols:	; 1 bytes @ 0x9
   689                           opt subtitle "HI-TECH Software Omniscient Code Generator (Lite mode) build 49521"
   690  0079                     lcd_goto@row:	; 1 bytes @ 0x9
   691                           opt subtitle "HI-TECH Software Omniscient Code Generator (Lite mode) build 49521"
   692  0079                     lcd_create_char@chardata:	; 1 bytes @ 0x9
   693  0079                     	ds	1
   694  007A                     ??_lcd_create_char:	; 0 bytes @ 0xA
   695  007A                     ??_lcd_goto:	; 0 bytes @ 0xA
   696                           opt subtitle "HI-TECH Software Omniscient Code Generator (Lite mode) build 49521"
   697  007A                     lcd_init@rows:	; 1 bytes @ 0xA
   698                           opt subtitle "HI-TECH Software Omniscient Code Generator (Lite mode) build 49521"
   699  007A                     lcd_puts@string:	; 1 bytes @ 0xA
   700  007A                     	ds	1
   701  007B                     ??_lcd_init:	; 0 bytes @ 0xB
   702                           opt subtitle "HI-TECH Software Omniscient Code Generator (Lite mode) build 49521"
   703  007B                     lcd_goto@col:	; 1 bytes @ 0xB
   704                           opt subtitle "HI-TECH Software Omniscient Code Generator (Lite mode) build 49521"
   705  007B                     lcd_create_char@charnum:	; 1 bytes @ 0xB
   706  007B                     	ds	1
   707                           opt subtitle "HI-TECH Software Omniscient Code Generator (Lite mode) build 49521"
   708  007C                     lcd_create_char@i:	; 1 bytes @ 0xC
   709  007C                     	ds	1
   710                           opt subtitle "HI-TECH Software Omniscient Code Generator (Lite mode) build 49521"
   711  007D                     lcd_init@iodata:	; 1 bytes @ 0xD
   712  007D                     	ds	1
   713                           opt subtitle "HI-TECH Software Omniscient Code Generator (Lite mode) build 49521"
   714                           
   715  0026                     __pcstackBANK0:
   716  0026                     ??_main:	; 0 bytes @ 0x0
   717  0026                     	ds	3
   718                           opt subtitle "HI-TECH Software Omniscient Code Generator (Lite mode) build 49521"
   719  0029                     main@i:	; 2 bytes @ 0x3
   720  0029                     	ds	2
   721                           opt subtitle "HI-TECH Software Omniscient Code Generator (Lite mode) build 49521"
   722                           
   723                           opt pagewidth 120
   724                           
   725                           	opt lm
   726                           
   727                           	processor	16F88
   728                           clrc	macro
   729                           	bcf	3,0
   730                           	endm
   731                           clrz	macro
   732                           	bcf	3,2
   733                           	endm
   734                           setc	macro
   735                           	bsf	3,0
   736                           	endm
   737                           setz	macro
   738                           	bsf	3,2
   739                           	endm
   740                           skipc	macro
   741                           	btfss	3,0
   742                           	endm
   743                           skipz	macro
   744                           	btfss	3,2
   745                           	endm
   746                           skipnc	macro
   747                           	btfsc	3,0
   748                           	endm
   749                           skipnz	macro
   750                           	btfsc	3,2
   751                           	endm
   752                           indf	equ	0
   753                           indf0	equ	0
   754                           pc	equ	2
   755                           pcl	equ	2
   756                           status	equ	3
   757                           fsr	equ	4
   758                           fsr0	equ	4
   759                           c	equ	1
   760                           z	equ	0
   761                           pclath	equ	10
   762                           # 46 "C:\Program Files (x86)\Microchip\xc8\v1.12\include\pic16f88.h"
   763                           INDF equ 00h ;# 
   764                           # 52 "C:\Program Files (x86)\Microchip\xc8\v1.12\include\pic16f88.h"
   765                           TMR0 equ 01h ;# 
   766                           # 58 "C:\Program Files (x86)\Microchip\xc8\v1.12\include\pic16f88.h"
   767                           PCL equ 02h ;# 
   768                           # 64 "C:\Program Files (x86)\Microchip\xc8\v1.12\include\pic16f88.h"
   769                           STATUS equ 03h ;# 
   770                           # 151 "C:\Program Files (x86)\Microchip\xc8\v1.12\include\pic16f88.h"
   771                           FSR equ 04h ;# 
   772                           # 157 "C:\Program Files (x86)\Microchip\xc8\v1.12\include\pic16f88.h"
   773                           PORTA equ 05h ;# 
   774                           # 218 "C:\Program Files (x86)\Microchip\xc8\v1.12\include\pic16f88.h"
   775                           PORTB equ 06h ;# 
   776                           # 279 "C:\Program Files (x86)\Microchip\xc8\v1.12\include\pic16f88.h"
   777                           PCLATH equ 0Ah ;# 
   778                           # 298 "C:\Program Files (x86)\Microchip\xc8\v1.12\include\pic16f88.h"
   779                           INTCON equ 0Bh ;# 
   780                           # 375 "C:\Program Files (x86)\Microchip\xc8\v1.12\include\pic16f88.h"
   781                           PIR1 equ 0Ch ;# 
   782                           # 430 "C:\Program Files (x86)\Microchip\xc8\v1.12\include\pic16f88.h"
   783                           PIR2 equ 0Dh ;# 
   784                           # 463 "C:\Program Files (x86)\Microchip\xc8\v1.12\include\pic16f88.h"
   785                           TMR1 equ 0Eh ;# 
   786                           # 469 "C:\Program Files (x86)\Microchip\xc8\v1.12\include\pic16f88.h"
   787                           TMR1L equ 0Eh ;# 
   788                           # 475 "C:\Program Files (x86)\Microchip\xc8\v1.12\include\pic16f88.h"
   789                           TMR1H equ 0Fh ;# 
   790                           # 481 "C:\Program Files (x86)\Microchip\xc8\v1.12\include\pic16f88.h"
   791                           T1CON equ 010h ;# 
   792                           # 552 "C:\Program Files (x86)\Microchip\xc8\v1.12\include\pic16f88.h"
   793                           TMR2 equ 011h ;# 
   794                           # 558 "C:\Program Files (x86)\Microchip\xc8\v1.12\include\pic16f88.h"
   795                           T2CON equ 012h ;# 
   796                           # 628 "C:\Program Files (x86)\Microchip\xc8\v1.12\include\pic16f88.h"
   797                           SSPBUF equ 013h ;# 
   798                           # 634 "C:\Program Files (x86)\Microchip\xc8\v1.12\include\pic16f88.h"
   799                           SSPCON equ 014h ;# 
   800                           # 703 "C:\Program Files (x86)\Microchip\xc8\v1.12\include\pic16f88.h"
   801                           CCPR1 equ 015h ;# 
   802                           # 709 "C:\Program Files (x86)\Microchip\xc8\v1.12\include\pic16f88.h"
   803                           CCPR1L equ 015h ;# 
   804                           # 715 "C:\Program Files (x86)\Microchip\xc8\v1.12\include\pic16f88.h"
   805                           CCPR1H equ 016h ;# 
   806                           # 721 "C:\Program Files (x86)\Microchip\xc8\v1.12\include\pic16f88.h"
   807                           CCP1CON equ 017h ;# 
   808                           # 778 "C:\Program Files (x86)\Microchip\xc8\v1.12\include\pic16f88.h"
   809                           RCSTA equ 018h ;# 
   810                           # 872 "C:\Program Files (x86)\Microchip\xc8\v1.12\include\pic16f88.h"
   811                           TXREG equ 019h ;# 
   812                           # 878 "C:\Program Files (x86)\Microchip\xc8\v1.12\include\pic16f88.h"
   813                           RCREG equ 01Ah ;# 
   814                           # 884 "C:\Program Files (x86)\Microchip\xc8\v1.12\include\pic16f88.h"
   815                           ADRESH equ 01Eh ;# 
   816                           # 890 "C:\Program Files (x86)\Microchip\xc8\v1.12\include\pic16f88.h"
   817                           ADCON0 equ 01Fh ;# 
   818                           # 985 "C:\Program Files (x86)\Microchip\xc8\v1.12\include\pic16f88.h"
   819                           OPTION_REG equ 081h ;# 
   820                           # 1054 "C:\Program Files (x86)\Microchip\xc8\v1.12\include\pic16f88.h"
   821                           TRISA equ 085h ;# 
   822                           # 1115 "C:\Program Files (x86)\Microchip\xc8\v1.12\include\pic16f88.h"
   823                           TRISB equ 086h ;# 
   824                           # 1176 "C:\Program Files (x86)\Microchip\xc8\v1.12\include\pic16f88.h"
   825                           PIE1 equ 08Ch ;# 
   826                           # 1231 "C:\Program Files (x86)\Microchip\xc8\v1.12\include\pic16f88.h"
   827                           PIE2 equ 08Dh ;# 
   828                           # 1264 "C:\Program Files (x86)\Microchip\xc8\v1.12\include\pic16f88.h"
   829                           PCON equ 08Eh ;# 
   830                           # 1297 "C:\Program Files (x86)\Microchip\xc8\v1.12\include\pic16f88.h"
   831                           OSCCON equ 08Fh ;# 
   832                           # 1367 "C:\Program Files (x86)\Microchip\xc8\v1.12\include\pic16f88.h"
   833                           OSCTUNE equ 090h ;# 
   834                           # 1424 "C:\Program Files (x86)\Microchip\xc8\v1.12\include\pic16f88.h"
   835                           PR2 equ 092h ;# 
   836                           # 1430 "C:\Program Files (x86)\Microchip\xc8\v1.12\include\pic16f88.h"
   837                           SSPADD equ 093h ;# 
   838                           # 1436 "C:\Program Files (x86)\Microchip\xc8\v1.12\include\pic16f88.h"
   839                           SSPSTAT equ 094h ;# 
   840                           # 1604 "C:\Program Files (x86)\Microchip\xc8\v1.12\include\pic16f88.h"
   841                           TXSTA equ 098h ;# 
   842                           # 1684 "C:\Program Files (x86)\Microchip\xc8\v1.12\include\pic16f88.h"
   843                           SPBRG equ 099h ;# 
   844                           # 1690 "C:\Program Files (x86)\Microchip\xc8\v1.12\include\pic16f88.h"
   845                           ANSEL equ 09Bh ;# 
   846                           # 1745 "C:\Program Files (x86)\Microchip\xc8\v1.12\include\pic16f88.h"
   847                           CMCON equ 09Ch ;# 
   848                           # 1814 "C:\Program Files (x86)\Microchip\xc8\v1.12\include\pic16f88.h"
   849                           CVRCON equ 09Dh ;# 
   850                           # 1878 "C:\Program Files (x86)\Microchip\xc8\v1.12\include\pic16f88.h"
   851                           ADRESL equ 09Eh ;# 
   852                           # 1884 "C:\Program Files (x86)\Microchip\xc8\v1.12\include\pic16f88.h"
   853                           ADCON1 equ 09Fh ;# 
   854                           # 1931 "C:\Program Files (x86)\Microchip\xc8\v1.12\include\pic16f88.h"
   855                           WDTCON equ 0105h ;# 
   856                           # 1988 "C:\Program Files (x86)\Microchip\xc8\v1.12\include\pic16f88.h"
   857                           EEDATA equ 010Ch ;# 
   858                           # 1994 "C:\Program Files (x86)\Microchip\xc8\v1.12\include\pic16f88.h"
   859                           EEADR equ 010Dh ;# 
   860                           # 2000 "C:\Program Files (x86)\Microchip\xc8\v1.12\include\pic16f88.h"
   861                           EEDATH equ 010Eh ;# 
   862                           # 2006 "C:\Program Files (x86)\Microchip\xc8\v1.12\include\pic16f88.h"
   863                           EEADRH equ 010Fh ;# 
   864                           # 2012 "C:\Program Files (x86)\Microchip\xc8\v1.12\include\pic16f88.h"
   865                           EECON1 equ 018Ch ;# 
   866                           # 2062 "C:\Program Files (x86)\Microchip\xc8\v1.12\include\pic16f88.h"
   867                           EECON2 equ 018Dh ;# 
   868                           # 46 "C:\Program Files (x86)\Microchip\xc8\v1.12\include\pic16f88.h"
   869                           INDF equ 00h ;# 
   870                           # 52 "C:\Program Files (x86)\Microchip\xc8\v1.12\include\pic16f88.h"
   871                           TMR0 equ 01h ;# 
   872                           # 58 "C:\Program Files (x86)\Microchip\xc8\v1.12\include\pic16f88.h"
   873                           PCL equ 02h ;# 
   874                           # 64 "C:\Program Files (x86)\Microchip\xc8\v1.12\include\pic16f88.h"
   875                           STATUS equ 03h ;# 
   876                           # 151 "C:\Program Files (x86)\Microchip\xc8\v1.12\include\pic16f88.h"
   877                           FSR equ 04h ;# 
   878                           # 157 "C:\Program Files (x86)\Microchip\xc8\v1.12\include\pic16f88.h"
   879                           PORTA equ 05h ;# 
   880                           # 218 "C:\Program Files (x86)\Microchip\xc8\v1.12\include\pic16f88.h"
   881                           PORTB equ 06h ;# 
   882                           # 279 "C:\Program Files (x86)\Microchip\xc8\v1.12\include\pic16f88.h"
   883                           PCLATH equ 0Ah ;# 
   884                           # 298 "C:\Program Files (x86)\Microchip\xc8\v1.12\include\pic16f88.h"
   885                           INTCON equ 0Bh ;# 
   886                           # 375 "C:\Program Files (x86)\Microchip\xc8\v1.12\include\pic16f88.h"
   887                           PIR1 equ 0Ch ;# 
   888                           # 430 "C:\Program Files (x86)\Microchip\xc8\v1.12\include\pic16f88.h"
   889                           PIR2 equ 0Dh ;# 
   890                           # 463 "C:\Program Files (x86)\Microchip\xc8\v1.12\include\pic16f88.h"
   891                           TMR1 equ 0Eh ;# 
   892                           # 469 "C:\Program Files (x86)\Microchip\xc8\v1.12\include\pic16f88.h"
   893                           TMR1L equ 0Eh ;# 
   894                           # 475 "C:\Program Files (x86)\Microchip\xc8\v1.12\include\pic16f88.h"
   895                           TMR1H equ 0Fh ;# 
   896                           # 481 "C:\Program Files (x86)\Microchip\xc8\v1.12\include\pic16f88.h"
   897                           T1CON equ 010h ;# 
   898                           # 552 "C:\Program Files (x86)\Microchip\xc8\v1.12\include\pic16f88.h"
   899                           TMR2 equ 011h ;# 
   900                           # 558 "C:\Program Files (x86)\Microchip\xc8\v1.12\include\pic16f88.h"
   901                           T2CON equ 012h ;# 
   902                           # 628 "C:\Program Files (x86)\Microchip\xc8\v1.12\include\pic16f88.h"
   903                           SSPBUF equ 013h ;# 
   904                           # 634 "C:\Program Files (x86)\Microchip\xc8\v1.12\include\pic16f88.h"
   905                           SSPCON equ 014h ;# 
   906                           # 703 "C:\Program Files (x86)\Microchip\xc8\v1.12\include\pic16f88.h"
   907                           CCPR1 equ 015h ;# 
   908                           # 709 "C:\Program Files (x86)\Microchip\xc8\v1.12\include\pic16f88.h"
   909                           CCPR1L equ 015h ;# 
   910                           # 715 "C:\Program Files (x86)\Microchip\xc8\v1.12\include\pic16f88.h"
   911                           CCPR1H equ 016h ;# 
   912                           # 721 "C:\Program Files (x86)\Microchip\xc8\v1.12\include\pic16f88.h"
   913                           CCP1CON equ 017h ;# 
   914                           # 778 "C:\Program Files (x86)\Microchip\xc8\v1.12\include\pic16f88.h"
   915                           RCSTA equ 018h ;# 
   916                           # 872 "C:\Program Files (x86)\Microchip\xc8\v1.12\include\pic16f88.h"
   917                           TXREG equ 019h ;# 
   918                           # 878 "C:\Program Files (x86)\Microchip\xc8\v1.12\include\pic16f88.h"
   919                           RCREG equ 01Ah ;# 
   920                           # 884 "C:\Program Files (x86)\Microchip\xc8\v1.12\include\pic16f88.h"
   921                           ADRESH equ 01Eh ;# 
   922                           # 890 "C:\Program Files (x86)\Microchip\xc8\v1.12\include\pic16f88.h"
   923                           ADCON0 equ 01Fh ;# 
   924                           # 985 "C:\Program Files (x86)\Microchip\xc8\v1.12\include\pic16f88.h"
   925                           OPTION_REG equ 081h ;# 
   926                           # 1054 "C:\Program Files (x86)\Microchip\xc8\v1.12\include\pic16f88.h"
   927                           TRISA equ 085h ;# 
   928                           # 1115 "C:\Program Files (x86)\Microchip\xc8\v1.12\include\pic16f88.h"
   929                           TRISB equ 086h ;# 
   930                           # 1176 "C:\Program Files (x86)\Microchip\xc8\v1.12\include\pic16f88.h"
   931                           PIE1 equ 08Ch ;# 
   932                           # 1231 "C:\Program Files (x86)\Microchip\xc8\v1.12\include\pic16f88.h"
   933                           PIE2 equ 08Dh ;# 
   934                           # 1264 "C:\Program Files (x86)\Microchip\xc8\v1.12\include\pic16f88.h"
   935                           PCON equ 08Eh ;# 
   936                           # 1297 "C:\Program Files (x86)\Microchip\xc8\v1.12\include\pic16f88.h"
   937                           OSCCON equ 08Fh ;# 
   938                           # 1367 "C:\Program Files (x86)\Microchip\xc8\v1.12\include\pic16f88.h"
   939                           OSCTUNE equ 090h ;# 
   940                           # 1424 "C:\Program Files (x86)\Microchip\xc8\v1.12\include\pic16f88.h"
   941                           PR2 equ 092h ;# 
   942                           # 1430 "C:\Program Files (x86)\Microchip\xc8\v1.12\include\pic16f88.h"
   943                           SSPADD equ 093h ;# 
   944                           # 1436 "C:\Program Files (x86)\Microchip\xc8\v1.12\include\pic16f88.h"
   945                           SSPSTAT equ 094h ;# 
   946                           # 1604 "C:\Program Files (x86)\Microchip\xc8\v1.12\include\pic16f88.h"
   947                           TXSTA equ 098h ;# 
   948                           # 1684 "C:\Program Files (x86)\Microchip\xc8\v1.12\include\pic16f88.h"
   949                           SPBRG equ 099h ;# 
   950                           # 1690 "C:\Program Files (x86)\Microchip\xc8\v1.12\include\pic16f88.h"
   951                           ANSEL equ 09Bh ;# 
   952                           # 1745 "C:\Program Files (x86)\Microchip\xc8\v1.12\include\pic16f88.h"
   953                           CMCON equ 09Ch ;# 
   954                           # 1814 "C:\Program Files (x86)\Microchip\xc8\v1.12\include\pic16f88.h"
   955                           CVRCON equ 09Dh ;# 
   956                           # 1878 "C:\Program Files (x86)\Microchip\xc8\v1.12\include\pic16f88.h"
   957                           ADRESL equ 09Eh ;# 
   958                           # 1884 "C:\Program Files (x86)\Microchip\xc8\v1.12\include\pic16f88.h"
   959                           ADCON1 equ 09Fh ;# 
   960                           # 1931 "C:\Program Files (x86)\Microchip\xc8\v1.12\include\pic16f88.h"
   961                           WDTCON equ 0105h ;# 
   962                           # 1988 "C:\Program Files (x86)\Microchip\xc8\v1.12\include\pic16f88.h"
   963                           EEDATA equ 010Ch ;# 
   964                           # 1994 "C:\Program Files (x86)\Microchip\xc8\v1.12\include\pic16f88.h"
   965                           EEADR equ 010Dh ;# 
   966                           # 2000 "C:\Program Files (x86)\Microchip\xc8\v1.12\include\pic16f88.h"
   967                           EEDATH equ 010Eh ;# 
   968                           # 2006 "C:\Program Files (x86)\Microchip\xc8\v1.12\include\pic16f88.h"
   969                           EEADRH equ 010Fh ;# 
   970                           # 2012 "C:\Program Files (x86)\Microchip\xc8\v1.12\include\pic16f88.h"
   971                           EECON1 equ 018Ch ;# 
   972                           # 2062 "C:\Program Files (x86)\Microchip\xc8\v1.12\include\pic16f88.h"
   973                           EECON2 equ 018Dh ;# 
   974                           # 46 "C:\Program Files (x86)\Microchip\xc8\v1.12\include\pic16f88.h"
   975                           INDF equ 00h ;# 
   976                           # 52 "C:\Program Files (x86)\Microchip\xc8\v1.12\include\pic16f88.h"
   977                           TMR0 equ 01h ;# 
   978                           # 58 "C:\Program Files (x86)\Microchip\xc8\v1.12\include\pic16f88.h"
   979  074A                     __pmaintext:	;psect for function _main
   980                           opt subtitle "HI-TECH Software Omniscient Code Generator (Lite mode) build 49521"
   981                           
   982                           opt pagewidth 120
   983                           
   984  00B6                     	__size_of_main	equ	__end_of_main-_main
   985                           opt subtitle "HI-TECH Software Omniscient Code Generator (Lite mode) build 49521"
   986  074A                     _main:	
   987                           opt subtitle "HI-TECH Software Omniscient Code Generator (Lite mode) build 49521"
   988                           
   989                           opt pagewidth 120
   990                           
   991  074A                     l1037:	
   992                           opt subtitle "HI-TECH Software Omniscient Code Generator (Lite mode) build 49521"
   993                           
   994  074A  1683               	bsf	status, 5	;RP0=1, select bank1
   995  074B  1303               	bcf	status, 6	;RP1=0, select bank1
   996  074C  019B               	clrf	(155)^080h	;volatile
   997                           opt subtitle "HI-TECH Software Omniscient Code Generator (Lite mode) build 49521"
   998                           
   999  074D                     l1039:	
  1000                           opt subtitle "HI-TECH Software Omniscient Code Generator (Lite mode) build 49521"
  1001  074D  30FE               	movlw	(0FEh)
  1002  074E  0085               	movwf	(133)^080h	;volatile
  1003                           opt subtitle "HI-TECH Software Omniscient Code Generator (Lite mode) build 49521"
  1004                           
  1005  074F                     l1041:	
  1006                           opt subtitle "HI-TECH Software Omniscient Code Generator (Lite mode) build 49521"
  1007  074F  307F               	movlw	(07Fh)
  1008  0750  0086               	movwf	(134)^080h	;volatile
  1009                           opt subtitle "HI-TECH Software Omniscient Code Generator (Lite mode) build 49521"
  1010                           
  1011  0751                     l1043:	
  1012                           opt subtitle "HI-TECH Software Omniscient Code Generator (Lite mode) build 49521"
  1013  0751  3010               	movlw	(010h)
  1014  0752  1283               	bcf	status, 5	;RP0=0, select bank0
  1015  0753  1303               	bcf	status, 6	;RP1=0, select bank0
  1016  0754  00A6               	movwf	(??_main+0)+0
  1017  0755  0826               	movf	(??_main+0)+0,w
  1018  0756  00F9               	movwf	(?_lcd_init)
  1019  0757  3002               	movlw	(02h)
  1020  0758  00A7               	movwf	(??_main+1)+0
  1021  0759  0827               	movf	(??_main+1)+0,w
  1022  075A  00FA               	movwf	0+(?_lcd_init)+01h
  1023  075B  3000               	movlw	(0)
  1024  075C  118A  269C  118A   	fcall	_lcd_init
  1025                           opt subtitle "HI-TECH Software Omniscient Code Generator (Lite mode) build 49521"
  1026                           
  1027  075F                     l1045:	
  1028                           opt subtitle "HI-TECH Software Omniscient Code Generator (Lite mode) build 49521"
  1029  075F  3011               	movlw	((_arrowr-__stringbase))&0ffh
  1030  0760  1283               	bcf	status, 5	;RP0=0, select bank0
  1031  0761  1303               	bcf	status, 6	;RP1=0, select bank0
  1032  0762  00A6               	movwf	(??_main+0)+0
  1033  0763  0826               	movf	(??_main+0)+0,w
  1034  0764  00F9               	movwf	(?_lcd_create_char)
  1035  0765  3000               	movlw	(0)
  1036  0766  118A  25EE  118A   	fcall	_lcd_create_char
  1037                           opt subtitle "HI-TECH Software Omniscient Code Generator (Lite mode) build 49521"
  1038                           
  1039  0769                     l1047:	
  1040                           opt subtitle "HI-TECH Software Omniscient Code Generator (Lite mode) build 49521"
  1041  0769  3019               	movlw	((_arrowu-__stringbase))&0ffh
  1042  076A  1283               	bcf	status, 5	;RP0=0, select bank0
  1043  076B  1303               	bcf	status, 6	;RP1=0, select bank0
  1044  076C  00A6               	movwf	(??_main+0)+0
  1045  076D  0826               	movf	(??_main+0)+0,w
  1046  076E  00F9               	movwf	(?_lcd_create_char)
  1047  076F  3001               	movlw	(01h)
  1048  0770  118A  25EE  118A   	fcall	_lcd_create_char
  1049                           opt subtitle "HI-TECH Software Omniscient Code Generator (Lite mode) build 49521"
  1050                           
  1051  0773                     l1049:	
  1052                           opt subtitle "HI-TECH Software Omniscient Code Generator (Lite mode) build 49521"
  1053  0773  3009               	movlw	((_arrowl-__stringbase))&0ffh
  1054  0774  1283               	bcf	status, 5	;RP0=0, select bank0
  1055  0775  1303               	bcf	status, 6	;RP1=0, select bank0
  1056  0776  00A6               	movwf	(??_main+0)+0
  1057  0777  0826               	movf	(??_main+0)+0,w
  1058  0778  00F9               	movwf	(?_lcd_create_char)
  1059  0779  3002               	movlw	(02h)
  1060  077A  118A  25EE  118A   	fcall	_lcd_create_char
  1061                           opt subtitle "HI-TECH Software Omniscient Code Generator (Lite mode) build 49521"
  1062                           
  1063  077D                     l1051:	
  1064                           opt subtitle "HI-TECH Software Omniscient Code Generator (Lite mode) build 49521"
  1065  077D  3001               	movlw	((_arrowd-__stringbase))&0ffh
  1066  077E  1283               	bcf	status, 5	;RP0=0, select bank0
  1067  077F  1303               	bcf	status, 6	;RP1=0, select bank0
  1068  0780  00A6               	movwf	(??_main+0)+0
  1069  0781  0826               	movf	(??_main+0)+0,w
  1070  0782  00F9               	movwf	(?_lcd_create_char)
  1071  0783  3003               	movlw	(03h)
  1072  0784  118A  25EE  118A   	fcall	_lcd_create_char
  1073                           opt subtitle "HI-TECH Software Omniscient Code Generator (Lite mode) build 49521"
  1074                           
  1075  0787                     l1053:	
  1076                           opt subtitle "HI-TECH Software Omniscient Code Generator (Lite mode) build 49521"
  1077  0787  118A  252A  118A   	fcall	_lcd_clear
  1078                           opt subtitle "HI-TECH Software Omniscient Code Generator (Lite mode) build 49521"
  1079                           
  1080  078A                     l1055:	
  1081                           opt subtitle "HI-TECH Software Omniscient Code Generator (Lite mode) build 49521"
  1082  078A  118A  251B  118A   	fcall	_lcd_on
  1083                           opt subtitle "HI-TECH Software Omniscient Code Generator (Lite mode) build 49521"
  1084                           
  1085  078D                     l1057:	
  1086                           opt subtitle "HI-TECH Software Omniscient Code Generator (Lite mode) build 49521"
  1087  078D  3021               	movlw	((STR_1-__stringbase))&0ffh
  1088  078E  118A  256A  118A   	fcall	_lcd_puts
  1089                           opt subtitle "HI-TECH Software Omniscient Code Generator (Lite mode) build 49521"
  1090                           
  1091  0791                     l1059:	
  1092                           opt subtitle "HI-TECH Software Omniscient Code Generator (Lite mode) build 49521"
  1093  0791  01F9               	clrf	(?_lcd_goto)
  1094  0792  0AF9               	incf	(?_lcd_goto),f
  1095  0793  3003               	movlw	(03h)
  1096  0794  118A  25C7  118A   	fcall	_lcd_goto
  1097                           opt subtitle "HI-TECH Software Omniscient Code Generator (Lite mode) build 49521"
  1098                           
  1099  0797                     l1061:	
  1100                           opt subtitle "HI-TECH Software Omniscient Code Generator (Lite mode) build 49521"
  1101  0797  3032               	movlw	((STR_2-__stringbase))&0ffh
  1102  0798  118A  256A  118A   	fcall	_lcd_puts
  1103                           opt subtitle "HI-TECH Software Omniscient Code Generator (Lite mode) build 49521"
  1104                           
  1105  079B                     l1063:	
  1106                           opt subtitle "HI-TECH Software Omniscient Code Generator (Lite mode) build 49521"
  1107  079B  01F9               	clrf	(?_lcd_goto)
  1108  079C  0AF9               	incf	(?_lcd_goto),f
  1109  079D  300F               	movlw	(0Fh)
  1110  079E  118A  25C7  118A   	fcall	_lcd_goto
  1111  07A1  2FA2               	goto	l1065
  1112                           opt subtitle "HI-TECH Software Omniscient Code Generator (Lite mode) build 49521"
  1113                           
  1114                           opt pagewidth 120
  1115  07A2                     l35:	
  1116                           opt subtitle "HI-TECH Software Omniscient Code Generator (Lite mode) build 49521"
  1117                           
  1118  07A2                     l1065:	
  1119                           opt subtitle "HI-TECH Software Omniscient Code Generator (Lite mode) build 49521"
  1120  07A2  1283               	bcf	status, 5	;RP0=0, select bank0
  1121  07A3  1303               	bcf	status, 6	;RP1=0, select bank0
  1122  07A4  01A9               	clrf	(main@i)
  1123  07A5  01AA               	clrf	(main@i+1)
  1124                           opt subtitle "HI-TECH Software Omniscient Code Generator (Lite mode) build 49521"
  1125  07A6                     l1067:	
  1126  07A6  082A               	movf	(main@i+1),w
  1127  07A7  3A80               	xorlw	80h
  1128  07A8  00FF               	movwf	btemp+1
  1129  07A9  3080               	movlw	(high(04h))^80h
  1130  07AA  027F               	subwf	btemp+1,w
  1131  07AB  1D03               	skipz
  1132  07AC  2FAF               	goto	u295
  1133  07AD  3004               	movlw	low(04h)
  1134  07AE  0229               	subwf	(main@i),w
  1135  07AF                     u295:
  1136                           opt subtitle "HI-TECH Software Omniscient Code Generator (Lite mode) build 49521"
  1137  07AF  1C03               	skipc
  1138  07B0  2FB2               	goto	u291
  1139  07B1  2FB3               	goto	u290
  1140  07B2                     u291:
  1141  07B2  2FB5               	goto	l1071
  1142  07B3                     u290:
  1143  07B3  2FA2               	goto	l1065
  1144                           opt subtitle "HI-TECH Software Omniscient Code Generator (Lite mode) build 49521"
  1145  07B4                     l1069:	
  1146  07B4  2FA2               	goto	l1065
  1147                           opt subtitle "HI-TECH Software Omniscient Code Generator (Lite mode) build 49521"
  1148  07B5                     l36:	
  1149                           opt subtitle "HI-TECH Software Omniscient Code Generator (Lite mode) build 49521"
  1150                           
  1151  07B5                     l1071:	
  1152                           opt subtitle "HI-TECH Software Omniscient Code Generator (Lite mode) build 49521"
  1153                           
  1154  07B5  3002               movlw  2
  1155  07B6  1283               	bcf	status, 5	;RP0=0, select bank0
  1156  07B7  1303               	bcf	status, 6	;RP1=0, select bank0
  1157  07B8  00A8               movwf	((??_main+0)+0+2),f
  1158  07B9  3045               movlw	69
  1159  07BA  00A7               movwf	((??_main+0)+0+1),f
  1160  07BB  30A9               	movlw	169
  1161  07BC  00A6               movwf	((??_main+0)+0),f
  1162  07BD                     u317:
  1163  07BD  0BA6               	decfsz	((??_main+0)+0),f
  1164  07BE  2FBD               	goto	u317
  1165  07BF  0BA7               	decfsz	((??_main+0)+0+1),f
  1166  07C0  2FBD               	goto	u317
  1167  07C1  0BA8               	decfsz	((??_main+0)+0+2),f
  1168  07C2  2FBD               	goto	u317
  1169  07C3  2FC4               	nop2
  1170                           opt subtitle "HI-TECH Software Omniscient Code Generator (Lite mode) build 49521"
  1171                           
  1172                           opt pagewidth 120
  1173                           
  1174  07C4                     l1073:	
  1175                           opt subtitle "HI-TECH Software Omniscient Code Generator (Lite mode) build 49521"
  1176  07C4  1283               	bcf	status, 5	;RP0=0, select bank0
  1177  07C5  1303               	bcf	status, 6	;RP1=0, select bank0
  1178  07C6  1386               	bcf	(6),7	;volatile
  1179                           opt subtitle "HI-TECH Software Omniscient Code Generator (Lite mode) build 49521"
  1180                           
  1181                           opt pagewidth 120
  1182  07C7  3002               movlw  2
  1183  07C8  00A8               movwf	((??_main+0)+0+2),f
  1184  07C9  3045               movlw	69
  1185  07CA  00A7               movwf	((??_main+0)+0+1),f
  1186  07CB  30A9               	movlw	169
  1187  07CC  00A6               movwf	((??_main+0)+0),f
  1188  07CD                     u327:
  1189  07CD  0BA6               	decfsz	((??_main+0)+0),f
  1190  07CE  2FCD               	goto	u327
  1191  07CF  0BA7               	decfsz	((??_main+0)+0+1),f
  1192  07D0  2FCD               	goto	u327
  1193  07D1  0BA8               	decfsz	((??_main+0)+0+2),f
  1194  07D2  2FCD               	goto	u327
  1195  07D3  2FD4               	nop2
  1196                           opt subtitle "HI-TECH Software Omniscient Code Generator (Lite mode) build 49521"
  1197                           
  1198                           opt pagewidth 120
  1199                           
  1200  07D4                     l1075:	
  1201                           opt subtitle "HI-TECH Software Omniscient Code Generator (Lite mode) build 49521"
  1202  07D4  1283               	bcf	status, 5	;RP0=0, select bank0
  1203  07D5  1303               	bcf	status, 6	;RP1=0, select bank0
  1204  07D6  1786               	bsf	(6),7	;volatile
  1205                           opt subtitle "HI-TECH Software Omniscient Code Generator (Lite mode) build 49521"
  1206                           
  1207  07D7                     l1077:	
  1208                           opt subtitle "HI-TECH Software Omniscient Code Generator (Lite mode) build 49521"
  1209  07D7  01F6               	clrf	(?_lcd_send)
  1210  07D8  0AF6               	incf	(?_lcd_send),f
  1211  07D9  0829               	movf	(main@i),w
  1212  07DA  118A  2622  118A   	fcall	_lcd_send
  1213                           opt subtitle "HI-TECH Software Omniscient Code Generator (Lite mode) build 49521"
  1214                           
  1215  07DD                     l1079:	
  1216                           opt subtitle "HI-TECH Software Omniscient Code Generator (Lite mode) build 49521"
  1217  07DD  3032               	movlw	(032h)
  1218  07DE  1283               	bcf	status, 5	;RP0=0, select bank0
  1219  07DF  1303               	bcf	status, 6	;RP1=0, select bank0
  1220  07E0  00A6               	movwf	(??_main+0)+0
  1221  07E1  0826               	movf	(??_main+0)+0,w
  1222  07E2  00F9               	movwf	(?_lcd_goto)
  1223  07E3  3032               	movlw	(032h)
  1224  07E4  118A  25C7  118A   	fcall	_lcd_goto
  1225                           opt subtitle "HI-TECH Software Omniscient Code Generator (Lite mode) build 49521"
  1226  07E7  3001               	movlw	low(01h)
  1227  07E8  1283               	bcf	status, 5	;RP0=0, select bank0
  1228  07E9  1303               	bcf	status, 6	;RP1=0, select bank0
  1229  07EA  07A9               	addwf	(main@i),f
  1230  07EB  1803               	skipnc
  1231  07EC  0AAA               	incf	(main@i+1),f
  1232  07ED  3000               	movlw	high(01h)
  1233  07EE  07AA               	addwf	(main@i+1),f
  1234                           opt subtitle "HI-TECH Software Omniscient Code Generator (Lite mode) build 49521"
  1235  07EF                     l1081:	
  1236  07EF  082A               	movf	(main@i+1),w
  1237  07F0  3A80               	xorlw	80h
  1238  07F1  00FF               	movwf	btemp+1
  1239  07F2  3080               	movlw	(high(04h))^80h
  1240  07F3  027F               	subwf	btemp+1,w
  1241  07F4  1D03               	skipz
  1242  07F5  2FF8               	goto	u305
  1243  07F6  3004               	movlw	low(04h)
  1244  07F7  0229               	subwf	(main@i),w
  1245  07F8                     u305:
  1246                           opt subtitle "HI-TECH Software Omniscient Code Generator (Lite mode) build 49521"
  1247  07F8  1C03               	skipc
  1248  07F9  2FFB               	goto	u301
  1249  07FA  2FFC               	goto	u300
  1250  07FB                     u301:
  1251  07FB  2FB5               	goto	l1071
  1252  07FC                     u300:
  1253  07FC  2FA2               	goto	l1065
  1254                           opt subtitle "HI-TECH Software Omniscient Code Generator (Lite mode) build 49521"
  1255  07FD                     l37:	
  1256                           opt subtitle "HI-TECH Software Omniscient Code Generator (Lite mode) build 49521"
  1257                           
  1258                           opt pagewidth 120
  1259  07FD  2FA2               	goto	l1065
  1260                           opt subtitle "HI-TECH Software Omniscient Code Generator (Lite mode) build 49521"
  1261  07FE                     l38:	
  1262                           opt subtitle "HI-TECH Software Omniscient Code Generator (Lite mode) build 49521"
  1263                           
  1264  07FE                     l39:	
  1265                           opt subtitle "HI-TECH Software Omniscient Code Generator (Lite mode) build 49521"
  1266  07FE  118A  2800         	ljmp	start
  1267                           opt subtitle "HI-TECH Software Omniscient Code Generator (Lite mode) build 49521"
  1268                           
  1269  0800                     	__end_of_main:
  1270                           opt subtitle "HI-TECH Software Omniscient Code Generator (Lite mode) build 49521"
  1271                           
  1272                           opt pagewidth 120
  1273                           
  1274                           	opt lm
  1275                           
  1276                           	processor	16F88
  1277                           clrc	macro
  1278                           	bcf	3,0
  1279                           	endm
  1280                           clrz	macro
  1281                           	bcf	3,2
  1282                           	endm
  1283                           setc	macro
  1284                           	bsf	3,0
  1285                           	endm
  1286                           setz	macro
  1287                           	bsf	3,2
  1288                           	endm
  1289                           skipc	macro
  1290                           	btfss	3,0
  1291                           	endm
  1292                           skipz	macro
  1293                           	btfss	3,2
  1294                           	endm
  1295                           skipnc	macro
  1296                           	btfsc	3,0
  1297                           	endm
  1298                           skipnz	macro
  1299                           	btfsc	3,2
  1300                           	endm
  1301                           indf	equ	0
  1302                           indf0	equ	0
  1303                           pc	equ	2
  1304                           pcl	equ	2
  1305                           status	equ	3
  1306                           fsr	equ	4
  1307                           fsr0	equ	4
  1308                           c	equ	1
  1309                           z	equ	0
  1310  069C                     __ptext237:	;psect for function _lcd_init
  1311                           opt subtitle "HI-TECH Software Omniscient Code Generator (Lite mode) build 49521"
  1312                           
  1313                           opt pagewidth 120
  1314                           
  1315  00AE                     	__size_of_lcd_init	equ	__end_of_lcd_init-_lcd_init
  1316                           opt subtitle "HI-TECH Software Omniscient Code Generator (Lite mode) build 49521"
  1317  069C                     _lcd_init:	
  1318                           opt subtitle "HI-TECH Software Omniscient Code Generator (Lite mode) build 49521"
  1319                           
  1320                           opt pagewidth 120
  1321                           
  1322  069C  00FD               	movwf	(lcd_init@iodata)
  1323                           opt subtitle "HI-TECH Software Omniscient Code Generator (Lite mode) build 49521"
  1324  069D                     l945:	
  1325                           opt subtitle "HI-TECH Software Omniscient Code Generator (Lite mode) build 49521"
  1326  069D  087D               	movf	(lcd_init@iodata),w
  1327  069E  118A  25A5  118A   	fcall	_lcd_ioinit
  1328  06A1  00FB               	movwf	(??_lcd_init+0)+0
  1329  06A2  087B               	movf	(??_lcd_init+0)+0,w
  1330  06A3  1283               	bcf	status, 5	;RP0=0, select bank0
  1331  06A4  1303               	bcf	status, 6	;RP1=0, select bank0
  1332  06A5  00AB               	movwf	(_iomode)
  1333                           opt subtitle "HI-TECH Software Omniscient Code Generator (Lite mode) build 49521"
  1334                           
  1335  06A6                     l947:	
  1336                           opt subtitle "HI-TECH Software Omniscient Code Generator (Lite mode) build 49521"
  1337  06A6  087A               	movf	(lcd_init@rows),w
  1338  06A7  00FB               	movwf	(??_lcd_init+0)+0
  1339  06A8  087B               	movf	(??_lcd_init+0)+0,w
  1340  06A9  00A5               	movwf	(_lcdrows)
  1341                           opt subtitle "HI-TECH Software Omniscient Code Generator (Lite mode) build 49521"
  1342                           
  1343  06AA                     l949:	
  1344                           opt subtitle "HI-TECH Software Omniscient Code Generator (Lite mode) build 49521"
  1345  06AA  0879               	movf	(lcd_init@cols),w
  1346  06AB  00FB               	movwf	(??_lcd_init+0)+0
  1347  06AC  087B               	movf	(??_lcd_init+0)+0,w
  1348  06AD  00A4               	movwf	(_lcdcolumns)
  1349                           opt subtitle "HI-TECH Software Omniscient Code Generator (Lite mode) build 49521"
  1350                           
  1351  06AE                     l951:	
  1352                           opt subtitle "HI-TECH Software Omniscient Code Generator (Lite mode) build 49521"
  1353                           
  1354  06AE  3082               movlw	130
  1355  06AF  00FC               movwf	((??_lcd_init+0)+0+1),f
  1356  06B0  30DD               	movlw	221
  1357  06B1  00FB               movwf	((??_lcd_init+0)+0),f
  1358  06B2                     u337:
  1359  06B2  0BFB               	decfsz	((??_lcd_init+0)+0),f
  1360  06B3  2EB2               	goto	u337
  1361  06B4  0BFC               	decfsz	((??_lcd_init+0)+0+1),f
  1362  06B5  2EB2               	goto	u337
  1363  06B6  2EB7               	nop2
  1364                           opt subtitle "HI-TECH Software Omniscient Code Generator (Lite mode) build 49521"
  1365                           
  1366                           opt pagewidth 120
  1367                           
  1368  06B7                     l953:	
  1369                           opt subtitle "HI-TECH Software Omniscient Code Generator (Lite mode) build 49521"
  1370  06B7  1283               	bcf	status, 5	;RP0=0, select bank0
  1371  06B8  1303               	bcf	status, 6	;RP1=0, select bank0
  1372  06B9  082B               	movf	(_iomode),w
  1373  06BA  3A04               	xorlw	04h
  1374  06BB  1D03               	skipz
  1375  06BC  2EBE               	goto	u211
  1376  06BD  2EBF               	goto	u210
  1377  06BE                     u211:
  1378  06BE  2EF1               	goto	l969
  1379  06BF                     u210:
  1380                           opt subtitle "HI-TECH Software Omniscient Code Generator (Lite mode) build 49521"
  1381                           
  1382  06BF                     l955:	
  1383                           opt subtitle "HI-TECH Software Omniscient Code Generator (Lite mode) build 49521"
  1384  06BF  3003               	movlw	(03h)
  1385  06C0  118A  2587  118A   	fcall	_lcd_iowrite4
  1386                           opt subtitle "HI-TECH Software Omniscient Code Generator (Lite mode) build 49521"
  1387                           
  1388  06C3                     l957:	
  1389                           opt subtitle "HI-TECH Software Omniscient Code Generator (Lite mode) build 49521"
  1390                           
  1391  06C3  3007               movlw	7
  1392  06C4  00FC               movwf	((??_lcd_init+0)+0+1),f
  1393  06C5  307D               	movlw	125
  1394  06C6  00FB               movwf	((??_lcd_init+0)+0),f
  1395  06C7                     u347:
  1396  06C7  0BFB               	decfsz	((??_lcd_init+0)+0),f
  1397  06C8  2EC7               	goto	u347
  1398  06C9  0BFC               	decfsz	((??_lcd_init+0)+0+1),f
  1399  06CA  2EC7               	goto	u347
  1400                           opt subtitle "HI-TECH Software Omniscient Code Generator (Lite mode) build 49521"
  1401                           
  1402                           opt pagewidth 120
  1403                           
  1404  06CB                     l959:	
  1405                           opt subtitle "HI-TECH Software Omniscient Code Generator (Lite mode) build 49521"
  1406  06CB  3003               	movlw	(03h)
  1407  06CC  118A  2587  118A   	fcall	_lcd_iowrite4
  1408                           opt subtitle "HI-TECH Software Omniscient Code Generator (Lite mode) build 49521"
  1409                           
  1410                           opt pagewidth 120
  1411  06CF  3027               movlw	39
  1412  06D0  00FB               movwf	(??_lcd_init+0)+0,f
  1413  06D1                     u357:
  1414  06D1  0BFB               decfsz	(??_lcd_init+0)+0,f
  1415  06D2  2ED1               	goto	u357
  1416  06D3  2ED4               	nop2	;nop
  1417                           opt subtitle "HI-TECH Software Omniscient Code Generator (Lite mode) build 49521"
  1418                           
  1419                           opt pagewidth 120
  1420                           
  1421  06D4                     l961:	
  1422                           opt subtitle "HI-TECH Software Omniscient Code Generator (Lite mode) build 49521"
  1423  06D4  3003               	movlw	(03h)
  1424  06D5  118A  2587  118A   	fcall	_lcd_iowrite4
  1425                           opt subtitle "HI-TECH Software Omniscient Code Generator (Lite mode) build 49521"
  1426                           
  1427  06D8                     l963:	
  1428                           opt subtitle "HI-TECH Software Omniscient Code Generator (Lite mode) build 49521"
  1429                           
  1430  06D8  3027               movlw	39
  1431  06D9  00FB               movwf	(??_lcd_init+0)+0,f
  1432  06DA                     u367:
  1433  06DA  0BFB               decfsz	(??_lcd_init+0)+0,f
  1434  06DB  2EDA               	goto	u367
  1435  06DC  2EDD               	nop2	;nop
  1436                           opt subtitle "HI-TECH Software Omniscient Code Generator (Lite mode) build 49521"
  1437                           
  1438                           opt pagewidth 120
  1439                           
  1440  06DD  3002               	movlw	(02h)
  1441  06DE  118A  2587  118A   	fcall	_lcd_iowrite4
  1442                           opt subtitle "HI-TECH Software Omniscient Code Generator (Lite mode) build 49521"
  1443                           
  1444  06E1                     l965:	
  1445                           opt subtitle "HI-TECH Software Omniscient Code Generator (Lite mode) build 49521"
  1446                           
  1447  06E1  3027               movlw	39
  1448  06E2  00FB               movwf	(??_lcd_init+0)+0,f
  1449  06E3                     u377:
  1450  06E3  0BFB               decfsz	(??_lcd_init+0)+0,f
  1451  06E4  2EE3               	goto	u377
  1452  06E5  2EE6               	nop2	;nop
  1453                           opt subtitle "HI-TECH Software Omniscient Code Generator (Lite mode) build 49521"
  1454                           
  1455                           opt pagewidth 120
  1456                           
  1457  06E6                     l967:	
  1458                           opt subtitle "HI-TECH Software Omniscient Code Generator (Lite mode) build 49521"
  1459  06E6  01F6               	clrf	(?_lcd_send)
  1460  06E7  302C               	movlw	(02Ch)
  1461  06E8  118A  2622  118A   	fcall	_lcd_send
  1462                           opt subtitle "HI-TECH Software Omniscient Code Generator (Lite mode) build 49521"
  1463                           
  1464                           opt pagewidth 120
  1465  06EB  3010               movlw	16
  1466  06EC  00FB               movwf	(??_lcd_init+0)+0,f
  1467  06ED                     u387:
  1468  06ED  0BFB               decfsz	(??_lcd_init+0)+0,f
  1469  06EE  2EED               	goto	u387
  1470  06EF  0000               	nop
  1471                           opt subtitle "HI-TECH Software Omniscient Code Generator (Lite mode) build 49521"
  1472                           
  1473                           opt pagewidth 120
  1474                           
  1475  06F0  2F26               	goto	l983
  1476                           opt subtitle "HI-TECH Software Omniscient Code Generator (Lite mode) build 49521"
  1477  06F1                     l64:	
  1478                           opt subtitle "HI-TECH Software Omniscient Code Generator (Lite mode) build 49521"
  1479  06F1                     l969:	
  1480  06F1  1283               	bcf	status, 5	;RP0=0, select bank0
  1481  06F2  1303               	bcf	status, 6	;RP1=0, select bank0
  1482  06F3  082B               	movf	(_iomode),w
  1483  06F4  3A08               	xorlw	08h
  1484  06F5  1D03               	skipz
  1485  06F6  2EF8               	goto	u221
  1486  06F7  2EF9               	goto	u220
  1487  06F8                     u221:
  1488  06F8  2F26               	goto	l983
  1489  06F9                     u220:
  1490                           opt subtitle "HI-TECH Software Omniscient Code Generator (Lite mode) build 49521"
  1491                           
  1492  06F9                     l971:	
  1493                           opt subtitle "HI-TECH Software Omniscient Code Generator (Lite mode) build 49521"
  1494  06F9  01F6               	clrf	(?_lcd_send)
  1495  06FA  3020               	movlw	(020h)
  1496  06FB  118A  2622  118A   	fcall	_lcd_send
  1497                           opt subtitle "HI-TECH Software Omniscient Code Generator (Lite mode) build 49521"
  1498                           
  1499  06FE                     l973:	
  1500                           opt subtitle "HI-TECH Software Omniscient Code Generator (Lite mode) build 49521"
  1501                           
  1502  06FE  3007               movlw	7
  1503  06FF  00FC               movwf	((??_lcd_init+0)+0+1),f
  1504  0700  307D               	movlw	125
  1505  0701  00FB               movwf	((??_lcd_init+0)+0),f
  1506  0702                     u397:
  1507  0702  0BFB               	decfsz	((??_lcd_init+0)+0),f
  1508  0703  2F02               	goto	u397
  1509  0704  0BFC               	decfsz	((??_lcd_init+0)+0+1),f
  1510  0705  2F02               	goto	u397
  1511                           opt subtitle "HI-TECH Software Omniscient Code Generator (Lite mode) build 49521"
  1512                           
  1513                           opt pagewidth 120
  1514                           
  1515  0706                     l975:	
  1516                           opt subtitle "HI-TECH Software Omniscient Code Generator (Lite mode) build 49521"
  1517  0706  01F6               	clrf	(?_lcd_send)
  1518  0707  3020               	movlw	(020h)
  1519  0708  118A  2622  118A   	fcall	_lcd_send
  1520                           opt subtitle "HI-TECH Software Omniscient Code Generator (Lite mode) build 49521"
  1521                           
  1522                           opt pagewidth 120
  1523  070B  3027               movlw	39
  1524  070C  00FB               movwf	(??_lcd_init+0)+0,f
  1525  070D                     u407:
  1526  070D  0BFB               decfsz	(??_lcd_init+0)+0,f
  1527  070E  2F0D               	goto	u407
  1528  070F  2F10               	nop2	;nop
  1529                           opt subtitle "HI-TECH Software Omniscient Code Generator (Lite mode) build 49521"
  1530                           
  1531                           opt pagewidth 120
  1532                           
  1533  0710                     l977:	
  1534                           opt subtitle "HI-TECH Software Omniscient Code Generator (Lite mode) build 49521"
  1535  0710  01F6               	clrf	(?_lcd_send)
  1536  0711  3020               	movlw	(020h)
  1537  0712  118A  2622  118A   	fcall	_lcd_send
  1538                           opt subtitle "HI-TECH Software Omniscient Code Generator (Lite mode) build 49521"
  1539                           
  1540  0715                     l979:	
  1541                           opt subtitle "HI-TECH Software Omniscient Code Generator (Lite mode) build 49521"
  1542                           
  1543  0715  3027               movlw	39
  1544  0716  00FB               movwf	(??_lcd_init+0)+0,f
  1545  0717                     u417:
  1546  0717  0BFB               decfsz	(??_lcd_init+0)+0,f
  1547  0718  2F17               	goto	u417
  1548  0719  2F1A               	nop2	;nop
  1549                           opt subtitle "HI-TECH Software Omniscient Code Generator (Lite mode) build 49521"
  1550                           
  1551                           opt pagewidth 120
  1552                           
  1553  071A  01F6               	clrf	(?_lcd_send)
  1554  071B  303C               	movlw	(03Ch)
  1555  071C  118A  2622  118A   	fcall	_lcd_send
  1556                           opt subtitle "HI-TECH Software Omniscient Code Generator (Lite mode) build 49521"
  1557                           
  1558  071F                     l981:	
  1559                           opt subtitle "HI-TECH Software Omniscient Code Generator (Lite mode) build 49521"
  1560                           
  1561  071F  3010               movlw	16
  1562  0720  00FB               movwf	(??_lcd_init+0)+0,f
  1563  0721                     u427:
  1564  0721  0BFB               decfsz	(??_lcd_init+0)+0,f
  1565  0722  2F21               	goto	u427
  1566  0723  0000               	nop
  1567                           opt subtitle "HI-TECH Software Omniscient Code Generator (Lite mode) build 49521"
  1568                           
  1569  0724  2F26               	goto	l983
  1570                           opt subtitle "HI-TECH Software Omniscient Code Generator (Lite mode) build 49521"
  1571                           
  1572  0725                     l66:	
  1573  0725  2F26               	goto	l983
  1574                           opt subtitle "HI-TECH Software Omniscient Code Generator (Lite mode) build 49521"
  1575                           
  1576  0726                     l65:	
  1577                           opt subtitle "HI-TECH Software Omniscient Code Generator (Lite mode) build 49521"
  1578  0726                     l983:	
  1579                           opt subtitle "HI-TECH Software Omniscient Code Generator (Lite mode) build 49521"
  1580                           
  1581  0726  01F6               	clrf	(?_lcd_send)
  1582  0727  3008               	movlw	(08h)
  1583  0728  118A  2622  118A   	fcall	_lcd_send
  1584                           opt subtitle "HI-TECH Software Omniscient Code Generator (Lite mode) build 49521"
  1585                           
  1586                           opt pagewidth 120
  1587  072B  3010               movlw	16
  1588  072C  00FB               movwf	(??_lcd_init+0)+0,f
  1589  072D                     u437:
  1590  072D  0BFB               decfsz	(??_lcd_init+0)+0,f
  1591  072E  2F2D               	goto	u437
  1592  072F  0000               	nop
  1593                           opt subtitle "HI-TECH Software Omniscient Code Generator (Lite mode) build 49521"
  1594                           
  1595                           opt pagewidth 120
  1596                           
  1597  0730                     l985:	
  1598                           opt subtitle "HI-TECH Software Omniscient Code Generator (Lite mode) build 49521"
  1599  0730  01F6               	clrf	(?_lcd_send)
  1600  0731  3001               	movlw	(01h)
  1601  0732  118A  2622  118A   	fcall	_lcd_send
  1602                           opt subtitle "HI-TECH Software Omniscient Code Generator (Lite mode) build 49521"
  1603                           
  1604  0735                     l987:	
  1605                           opt subtitle "HI-TECH Software Omniscient Code Generator (Lite mode) build 49521"
  1606                           
  1607  0735  3003               movlw	3
  1608  0736  00FC               movwf	((??_lcd_init+0)+0+1),f
  1609  0737  3097               	movlw	151
  1610  0738  00FB               movwf	((??_lcd_init+0)+0),f
  1611  0739                     u447:
  1612  0739  0BFB               	decfsz	((??_lcd_init+0)+0),f
  1613  073A  2F39               	goto	u447
  1614  073B  0BFC               	decfsz	((??_lcd_init+0)+0+1),f
  1615  073C  2F39               	goto	u447
  1616  073D  2F3E               	nop2
  1617                           opt subtitle "HI-TECH Software Omniscient Code Generator (Lite mode) build 49521"
  1618                           
  1619                           opt pagewidth 120
  1620                           
  1621  073E  01F6               	clrf	(?_lcd_send)
  1622  073F  3006               	movlw	(06h)
  1623  0740  118A  2622  118A   	fcall	_lcd_send
  1624                           opt subtitle "HI-TECH Software Omniscient Code Generator (Lite mode) build 49521"
  1625                           
  1626  0743                     l989:	
  1627                           opt subtitle "HI-TECH Software Omniscient Code Generator (Lite mode) build 49521"
  1628                           
  1629  0743  3010               movlw	16
  1630  0744  00FB               movwf	(??_lcd_init+0)+0,f
  1631  0745                     u457:
  1632  0745  0BFB               decfsz	(??_lcd_init+0)+0,f
  1633  0746  2F45               	goto	u457
  1634  0747  0000               	nop
  1635                           opt subtitle "HI-TECH Software Omniscient Code Generator (Lite mode) build 49521"
  1636                           
  1637  0748  2F49               	goto	l67
  1638                           opt subtitle "HI-TECH Software Omniscient Code Generator (Lite mode) build 49521"
  1639                           
  1640  0749                     l991:	
  1641                           opt subtitle "HI-TECH Software Omniscient Code Generator (Lite mode) build 49521"
  1642                           
  1643                           opt pagewidth 120
  1644                           
  1645  0749                     l67:	
  1646  0749  0008               	return
  1647                           opt subtitle "HI-TECH Software Omniscient Code Generator (Lite mode) build 49521"
  1648                           
  1649  074A                     	__end_of_lcd_init:
  1650                           opt subtitle "HI-TECH Software Omniscient Code Generator (Lite mode) build 49521"
  1651                           
  1652                           opt pagewidth 120
  1653                           
  1654                           	opt lm
  1655                           
  1656                           	processor	16F88
  1657                           clrc	macro
  1658                           	bcf	3,0
  1659                           	endm
  1660                           clrz	macro
  1661                           	bcf	3,2
  1662                           	endm
  1663                           setc	macro
  1664                           	bsf	3,0
  1665                           	endm
  1666                           setz	macro
  1667                           	bsf	3,2
  1668                           	endm
  1669                           skipc	macro
  1670                           	btfss	3,0
  1671                           	endm
  1672                           skipz	macro
  1673                           	btfss	3,2
  1674                           	endm
  1675                           skipnc	macro
  1676                           	btfsc	3,0
  1677                           	endm
  1678                           skipnz	macro
  1679                           	btfsc	3,2
  1680                           	endm
  1681                           indf	equ	0
  1682                           indf0	equ	0
  1683                           pc	equ	2
  1684                           pcl	equ	2
  1685                           status	equ	3
  1686                           fsr	equ	4
  1687  05EE                     __ptext238:	;psect for function _lcd_create_char
  1688                           opt subtitle "HI-TECH Software Omniscient Code Generator (Lite mode) build 49521"
  1689                           
  1690                           opt pagewidth 120
  1691                           
  1692  0034                     	__size_of_lcd_create_char	equ	__end_of_lcd_create_char-_lcd_create_char
  1693                           opt subtitle "HI-TECH Software Omniscient Code Generator (Lite mode) build 49521"
  1694  05EE                     _lcd_create_char:	
  1695                           opt subtitle "HI-TECH Software Omniscient Code Generator (Lite mode) build 49521"
  1696                           
  1697                           opt pagewidth 120
  1698                           
  1699  05EE  00FB               	movwf	(lcd_create_char@charnum)
  1700                           opt subtitle "HI-TECH Software Omniscient Code Generator (Lite mode) build 49521"
  1701  05EF                     l993:	
  1702                           opt subtitle "HI-TECH Software Omniscient Code Generator (Lite mode) build 49521"
  1703                           
  1704  05EF  3007               	movlw	(07h)
  1705  05F0  00FA               	movwf	(??_lcd_create_char+0)+0
  1706  05F1  087A               	movf	(??_lcd_create_char+0)+0,w
  1707  05F2  05FB               	andwf	(lcd_create_char@charnum),f
  1708                           opt subtitle "HI-TECH Software Omniscient Code Generator (Lite mode) build 49521"
  1709                           
  1710  05F3                     l995:	
  1711                           opt subtitle "HI-TECH Software Omniscient Code Generator (Lite mode) build 49521"
  1712  05F3  01F6               	clrf	(?_lcd_send)
  1713  05F4  087B               	movf	(lcd_create_char@charnum),w
  1714  05F5  00FA               	movwf	(??_lcd_create_char+0)+0
  1715  05F6  3002               	movlw	(03h)-1
  1716  05F7                     u235:
  1717  05F7  1003               	clrc
  1718  05F8  0DFA               	rlf	(??_lcd_create_char+0)+0,f
  1719  05F9  3EFF               	addlw	-1
  1720  05FA  1D03               	skipz
  1721  05FB  2DF7               	goto	u235
  1722  05FC  1003               	clrc
  1723  05FD  0D7A               	rlf	(??_lcd_create_char+0)+0,w
  1724  05FE  3840               	iorlw	040h
  1725  05FF  118A  2622  118A   	fcall	_lcd_send
  1726                           opt subtitle "HI-TECH Software Omniscient Code Generator (Lite mode) build 49521"
  1727                           
  1728  0602                     l997:	
  1729                           opt subtitle "HI-TECH Software Omniscient Code Generator (Lite mode) build 49521"
  1730  0602  01FC               	clrf	(lcd_create_char@i)
  1731                           opt subtitle "HI-TECH Software Omniscient Code Generator (Lite mode) build 49521"
  1732  0603                     l999:	
  1733  0603  3008               	movlw	(08h)
  1734  0604  027C               	subwf	(lcd_create_char@i),w
  1735  0605  1C03               	skipc
  1736  0606  2E08               	goto	u241
  1737  0607  2E09               	goto	u240
  1738  0608                     u241:
  1739  0608  2E0B               	goto	l1003
  1740  0609                     u240:
  1741  0609  2E21               	goto	l105
  1742                           opt subtitle "HI-TECH Software Omniscient Code Generator (Lite mode) build 49521"
  1743  060A                     l1001:	
  1744  060A  2E21               	goto	l105
  1745                           opt subtitle "HI-TECH Software Omniscient Code Generator (Lite mode) build 49521"
  1746                           
  1747  060B                     l103:	
  1748                           opt subtitle "HI-TECH Software Omniscient Code Generator (Lite mode) build 49521"
  1749  060B                     l1003:	
  1750                           opt subtitle "HI-TECH Software Omniscient Code Generator (Lite mode) build 49521"
  1751  060B  01F6               	clrf	(?_lcd_send)
  1752  060C  0AF6               	incf	(?_lcd_send),f
  1753  060D  087C               	movf	(lcd_create_char@i),w
  1754  060E  0779               	addwf	(lcd_create_char@chardata),w
  1755  060F  0084               	movwf	fsr0
  1756  0610  118A  2002  118A   	fcall	stringdir
  1757  0613  118A  2622  118A   	fcall	_lcd_send
  1758                           opt subtitle "HI-TECH Software Omniscient Code Generator (Lite mode) build 49521"
  1759                           
  1760  0616                     l1005:	
  1761  0616  3001               	movlw	(01h)
  1762  0617  00FA               	movwf	(??_lcd_create_char+0)+0
  1763  0618  087A               	movf	(??_lcd_create_char+0)+0,w
  1764  0619  07FC               	addwf	(lcd_create_char@i),f
  1765                           opt subtitle "HI-TECH Software Omniscient Code Generator (Lite mode) build 49521"
  1766  061A                     l1007:	
  1767  061A  3008               	movlw	(08h)
  1768  061B  027C               	subwf	(lcd_create_char@i),w
  1769  061C  1C03               	skipc
  1770  061D  2E1F               	goto	u251
  1771  061E  2E20               	goto	u250
  1772  061F                     u251:
  1773  061F  2E0B               	goto	l1003
  1774  0620                     u250:
  1775  0620  2E21               	goto	l105
  1776                           opt subtitle "HI-TECH Software Omniscient Code Generator (Lite mode) build 49521"
  1777  0621                     l104:	
  1778                           opt subtitle "HI-TECH Software Omniscient Code Generator (Lite mode) build 49521"
  1779                           
  1780  0621                     l105:	
  1781  0621  0008               	return
  1782                           opt subtitle "HI-TECH Software Omniscient Code Generator (Lite mode) build 49521"
  1783                           
  1784  0622                     	__end_of_lcd_create_char:
  1785                           opt subtitle "HI-TECH Software Omniscient Code Generator (Lite mode) build 49521"
  1786                           
  1787                           opt pagewidth 120
  1788                           
  1789                           	opt lm
  1790                           
  1791                           	processor	16F88
  1792                           clrc	macro
  1793                           	bcf	3,0
  1794                           	endm
  1795                           clrz	macro
  1796                           	bcf	3,2
  1797                           	endm
  1798                           setc	macro
  1799                           	bsf	3,0
  1800                           	endm
  1801                           setz	macro
  1802                           	bsf	3,2
  1803                           	endm
  1804                           skipc	macro
  1805                           	btfss	3,0
  1806                           	endm
  1807                           skipz	macro
  1808                           	btfss	3,2
  1809                           	endm
  1810                           skipnc	macro
  1811                           	btfsc	3,0
  1812                           	endm
  1813                           skipnz	macro
  1814                           	btfsc	3,2
  1815                           	endm
  1816                           indf	equ	0
  1817                           indf0	equ	0
  1818                           pc	equ	2
  1819  052A                     __ptext239:	;psect for function _lcd_clear
  1820                           opt subtitle "HI-TECH Software Omniscient Code Generator (Lite mode) build 49521"
  1821                           
  1822                           opt pagewidth 120
  1823                           
  1824  000F                     	__size_of_lcd_clear	equ	__end_of_lcd_clear-_lcd_clear
  1825                           opt subtitle "HI-TECH Software Omniscient Code Generator (Lite mode) build 49521"
  1826  052A                     _lcd_clear:	
  1827                           opt subtitle "HI-TECH Software Omniscient Code Generator (Lite mode) build 49521"
  1828                           
  1829                           opt pagewidth 120
  1830                           
  1831  052A                     l1009:	
  1832                           opt subtitle "HI-TECH Software Omniscient Code Generator (Lite mode) build 49521"
  1833  052A  01F6               	clrf	(?_lcd_send)
  1834  052B  3001               	movlw	(01h)
  1835  052C  118A  2622  118A   	fcall	_lcd_send
  1836                           opt subtitle "HI-TECH Software Omniscient Code Generator (Lite mode) build 49521"
  1837                           
  1838  052F                     l1011:	
  1839                           opt subtitle "HI-TECH Software Omniscient Code Generator (Lite mode) build 49521"
  1840                           
  1841  052F  3003               movlw	3
  1842  0530  00FA               movwf	((??_lcd_clear+0)+0+1),f
  1843  0531  3097               	movlw	151
  1844  0532  00F9               movwf	((??_lcd_clear+0)+0),f
  1845  0533                     u467:
  1846  0533  0BF9               	decfsz	((??_lcd_clear+0)+0),f
  1847  0534  2D33               	goto	u467
  1848  0535  0BFA               	decfsz	((??_lcd_clear+0)+0+1),f
  1849  0536  2D33               	goto	u467
  1850  0537  2D38               	nop2
  1851                           opt subtitle "HI-TECH Software Omniscient Code Generator (Lite mode) build 49521"
  1852                           
  1853                           opt pagewidth 120
  1854                           
  1855  0538                     l70:	
  1856  0538  0008               	return
  1857                           opt subtitle "HI-TECH Software Omniscient Code Generator (Lite mode) build 49521"
  1858                           
  1859  0539                     	__end_of_lcd_clear:
  1860                           opt subtitle "HI-TECH Software Omniscient Code Generator (Lite mode) build 49521"
  1861                           
  1862                           opt pagewidth 120
  1863                           
  1864                           	opt lm
  1865                           
  1866                           	processor	16F88
  1867                           clrc	macro
  1868                           	bcf	3,0
  1869                           	endm
  1870                           clrz	macro
  1871                           	bcf	3,2
  1872                           	endm
  1873                           setc	macro
  1874                           	bsf	3,0
  1875                           	endm
  1876                           setz	macro
  1877                           	bsf	3,2
  1878                           	endm
  1879                           skipc	macro
  1880                           	btfss	3,0
  1881                           	endm
  1882                           skipz	macro
  1883                           	btfss	3,2
  1884                           	endm
  1885                           skipnc	macro
  1886                           	btfsc	3,0
  1887                           	endm
  1888                           skipnz	macro
  1889                           	btfsc	3,2
  1890                           	endm
  1891                           indf	equ	0
  1892                           indf0	equ	0
  1893                           pc	equ	2
  1894  051B                     __ptext240:	;psect for function _lcd_on
  1895                           opt subtitle "HI-TECH Software Omniscient Code Generator (Lite mode) build 49521"
  1896                           
  1897                           opt pagewidth 120
  1898                           
  1899  000F                     	__size_of_lcd_on	equ	__end_of_lcd_on-_lcd_on
  1900                           opt subtitle "HI-TECH Software Omniscient Code Generator (Lite mode) build 49521"
  1901  051B                     _lcd_on:	
  1902                           opt subtitle "HI-TECH Software Omniscient Code Generator (Lite mode) build 49521"
  1903                           
  1904                           opt pagewidth 120
  1905                           
  1906  051B                     l1013:	
  1907                           opt subtitle "HI-TECH Software Omniscient Code Generator (Lite mode) build 49521"
  1908  051B  1283               	bcf	status, 5	;RP0=0, select bank0
  1909  051C  1303               	bcf	status, 6	;RP1=0, select bank0
  1910  051D  152C               	bsf	(_dispctrl)+(2/8),(2)&7
  1911                           opt subtitle "HI-TECH Software Omniscient Code Generator (Lite mode) build 49521"
  1912                           
  1913  051E                     l1015:	
  1914                           opt subtitle "HI-TECH Software Omniscient Code Generator (Lite mode) build 49521"
  1915  051E  01F6               	clrf	(?_lcd_send)
  1916  051F  082C               	movf	(_dispctrl),w
  1917  0520  3808               	iorlw	08h
  1918  0521  118A  2622  118A   	fcall	_lcd_send
  1919                           opt subtitle "HI-TECH Software Omniscient Code Generator (Lite mode) build 49521"
  1920                           
  1921  0524                     l1017:	
  1922                           opt subtitle "HI-TECH Software Omniscient Code Generator (Lite mode) build 49521"
  1923                           
  1924  0524  3010               movlw	16
  1925  0525  00F9               movwf	(??_lcd_on+0)+0,f
  1926  0526                     u477:
  1927  0526  0BF9               decfsz	(??_lcd_on+0)+0,f
  1928  0527  2D26               	goto	u477
  1929  0528  0000               	nop
  1930                           opt subtitle "HI-TECH Software Omniscient Code Generator (Lite mode) build 49521"
  1931                           
  1932                           opt pagewidth 120
  1933                           
  1934  0529                     l76:	
  1935  0529  0008               	return
  1936                           opt subtitle "HI-TECH Software Omniscient Code Generator (Lite mode) build 49521"
  1937                           
  1938  052A                     	__end_of_lcd_on:
  1939                           opt subtitle "HI-TECH Software Omniscient Code Generator (Lite mode) build 49521"
  1940                           
  1941                           opt pagewidth 120
  1942                           
  1943                           	opt lm
  1944                           
  1945                           	processor	16F88
  1946                           clrc	macro
  1947                           	bcf	3,0
  1948                           	endm
  1949                           clrz	macro
  1950                           	bcf	3,2
  1951                           	endm
  1952                           setc	macro
  1953                           	bsf	3,0
  1954                           	endm
  1955                           setz	macro
  1956                           	bsf	3,2
  1957                           	endm
  1958                           skipc	macro
  1959                           	btfss	3,0
  1960                           	endm
  1961                           skipz	macro
  1962                           	btfss	3,2
  1963                           	endm
  1964                           skipnc	macro
  1965                           	btfsc	3,0
  1966                           	endm
  1967                           skipnz	macro
  1968                           	btfsc	3,2
  1969                           	endm
  1970                           indf	equ	0
  1971                           indf0	equ	0
  1972                           pc	equ	2
  1973                           pcl	equ	2
  1974                           status	equ	3
  1975  056A                     __ptext241:	;psect for function _lcd_puts
  1976                           opt subtitle "HI-TECH Software Omniscient Code Generator (Lite mode) build 49521"
  1977                           
  1978                           opt pagewidth 120
  1979                           
  1980  001D                     	__size_of_lcd_puts	equ	__end_of_lcd_puts-_lcd_puts
  1981                           opt subtitle "HI-TECH Software Omniscient Code Generator (Lite mode) build 49521"
  1982  056A                     _lcd_puts:	
  1983                           opt subtitle "HI-TECH Software Omniscient Code Generator (Lite mode) build 49521"
  1984                           
  1985                           opt pagewidth 120
  1986  056A  00FA               	movwf	(lcd_puts@string)
  1987                           opt subtitle "HI-TECH Software Omniscient Code Generator (Lite mode) build 49521"
  1988                           
  1989  056B                     l1019:	
  1990                           opt subtitle "HI-TECH Software Omniscient Code Generator (Lite mode) build 49521"
  1991  056B  2D7B               	goto	l1025
  1992                           opt subtitle "HI-TECH Software Omniscient Code Generator (Lite mode) build 49521"
  1993  056C                     l98:	
  1994                           opt subtitle "HI-TECH Software Omniscient Code Generator (Lite mode) build 49521"
  1995                           
  1996  056C                     l1021:	
  1997                           opt subtitle "HI-TECH Software Omniscient Code Generator (Lite mode) build 49521"
  1998  056C  01F6               	clrf	(?_lcd_send)
  1999  056D  0AF6               	incf	(?_lcd_send),f
  2000  056E  087A               	movf	(lcd_puts@string),w
  2001  056F  0084               	movwf	fsr0
  2002  0570  118A  2002  118A   	fcall	stringdir
  2003  0573  118A  2622  118A   	fcall	_lcd_send
  2004                           opt subtitle "HI-TECH Software Omniscient Code Generator (Lite mode) build 49521"
  2005  0576                     l1023:	
  2006  0576  3001               	movlw	(01h)
  2007  0577  00F9               	movwf	(??_lcd_puts+0)+0
  2008  0578  0879               	movf	(??_lcd_puts+0)+0,w
  2009  0579  07FA               	addwf	(lcd_puts@string),f
  2010  057A  2D7B               	goto	l1025
  2011                           opt subtitle "HI-TECH Software Omniscient Code Generator (Lite mode) build 49521"
  2012  057B                     l97:	
  2013                           opt subtitle "HI-TECH Software Omniscient Code Generator (Lite mode) build 49521"
  2014                           
  2015  057B                     l1025:	
  2016  057B  087A               	movf	(lcd_puts@string),w
  2017  057C  0084               	movwf	fsr0
  2018  057D  118A  2002  118A   	fcall	stringdir
  2019  0580  3800               	iorlw	0
  2020  0581  1D03               	skipz
  2021  0582  2D84               	goto	u261
  2022  0583  2D85               	goto	u260
  2023  0584                     u261:
  2024  0584  2D6C               	goto	l1021
  2025  0585                     u260:
  2026  0585  2D86               	goto	l100
  2027                           opt subtitle "HI-TECH Software Omniscient Code Generator (Lite mode) build 49521"
  2028  0586                     l99:	
  2029                           opt subtitle "HI-TECH Software Omniscient Code Generator (Lite mode) build 49521"
  2030                           
  2031  0586                     l100:	
  2032  0586  0008               	return
  2033                           opt subtitle "HI-TECH Software Omniscient Code Generator (Lite mode) build 49521"
  2034                           
  2035  0587                     	__end_of_lcd_puts:
  2036                           opt subtitle "HI-TECH Software Omniscient Code Generator (Lite mode) build 49521"
  2037                           
  2038                           opt pagewidth 120
  2039                           
  2040                           	opt lm
  2041                           
  2042                           	processor	16F88
  2043                           clrc	macro
  2044                           	bcf	3,0
  2045                           	endm
  2046                           clrz	macro
  2047                           	bcf	3,2
  2048                           	endm
  2049                           setc	macro
  2050                           	bsf	3,0
  2051                           	endm
  2052                           setz	macro
  2053                           	bsf	3,2
  2054                           	endm
  2055                           skipc	macro
  2056                           	btfss	3,0
  2057                           	endm
  2058                           skipz	macro
  2059                           	btfss	3,2
  2060                           	endm
  2061                           skipnc	macro
  2062                           	btfsc	3,0
  2063                           	endm
  2064                           skipnz	macro
  2065                           	btfsc	3,2
  2066                           	endm
  2067                           indf	equ	0
  2068                           indf0	equ	0
  2069                           pc	equ	2
  2070                           pcl	equ	2
  2071  05C7                     __ptext242:	;psect for function _lcd_goto
  2072                           opt subtitle "HI-TECH Software Omniscient Code Generator (Lite mode) build 49521"
  2073                           
  2074                           opt pagewidth 120
  2075                           
  2076  0027                     	__size_of_lcd_goto	equ	__end_of_lcd_goto-_lcd_goto
  2077                           opt subtitle "HI-TECH Software Omniscient Code Generator (Lite mode) build 49521"
  2078  05C7                     _lcd_goto:	
  2079                           opt subtitle "HI-TECH Software Omniscient Code Generator (Lite mode) build 49521"
  2080                           
  2081                           opt pagewidth 120
  2082                           
  2083  05C7  00FB               	movwf	(lcd_goto@col)
  2084                           opt subtitle "HI-TECH Software Omniscient Code Generator (Lite mode) build 49521"
  2085  05C8                     l1027:	
  2086                           opt subtitle "HI-TECH Software Omniscient Code Generator (Lite mode) build 49521"
  2087  05C8  1283               	bcf	status, 5	;RP0=0, select bank0
  2088  05C9  1303               	bcf	status, 6	;RP1=0, select bank0
  2089  05CA  0825               	movf	(_lcdrows),w
  2090  05CB  0279               	subwf	(lcd_goto@row),w
  2091  05CC  1C03               	skipc
  2092  05CD  2DCF               	goto	u271
  2093  05CE  2DD0               	goto	u270
  2094  05CF                     u271:
  2095  05CF  2DD6               	goto	l1031
  2096  05D0                     u270:
  2097                           opt subtitle "HI-TECH Software Omniscient Code Generator (Lite mode) build 49521"
  2098                           
  2099  05D0                     l1029:	
  2100                           opt subtitle "HI-TECH Software Omniscient Code Generator (Lite mode) build 49521"
  2101  05D0  0825               	movf	(_lcdrows),w
  2102  05D1  3EFF               	addlw	0FFh
  2103  05D2  00FA               	movwf	(??_lcd_goto+0)+0
  2104  05D3  087A               	movf	(??_lcd_goto+0)+0,w
  2105  05D4  00F9               	movwf	(lcd_goto@row)
  2106  05D5  2DD6               	goto	l1031
  2107                           opt subtitle "HI-TECH Software Omniscient Code Generator (Lite mode) build 49521"
  2108  05D6                     l85:	
  2109                           opt subtitle "HI-TECH Software Omniscient Code Generator (Lite mode) build 49521"
  2110                           
  2111  05D6                     l1031:	
  2112                           opt subtitle "HI-TECH Software Omniscient Code Generator (Lite mode) build 49521"
  2113  05D6  0824               	movf	(_lcdcolumns),w
  2114  05D7  027B               	subwf	(lcd_goto@col),w
  2115  05D8  1C03               	skipc
  2116  05D9  2DDB               	goto	u281
  2117  05DA  2DDC               	goto	u280
  2118  05DB                     u281:
  2119  05DB  2DE2               	goto	l1035
  2120  05DC                     u280:
  2121                           opt subtitle "HI-TECH Software Omniscient Code Generator (Lite mode) build 49521"
  2122                           
  2123  05DC                     l1033:	
  2124                           opt subtitle "HI-TECH Software Omniscient Code Generator (Lite mode) build 49521"
  2125  05DC  0824               	movf	(_lcdcolumns),w
  2126  05DD  3EFF               	addlw	0FFh
  2127  05DE  00FA               	movwf	(??_lcd_goto+0)+0
  2128  05DF  087A               	movf	(??_lcd_goto+0)+0,w
  2129  05E0  00FB               	movwf	(lcd_goto@col)
  2130  05E1  2DE2               	goto	l1035
  2131                           opt subtitle "HI-TECH Software Omniscient Code Generator (Lite mode) build 49521"
  2132  05E2                     l86:	
  2133                           opt subtitle "HI-TECH Software Omniscient Code Generator (Lite mode) build 49521"
  2134                           
  2135  05E2                     l1035:	
  2136                           opt subtitle "HI-TECH Software Omniscient Code Generator (Lite mode) build 49521"
  2137  05E2  01F6               	clrf	(?_lcd_send)
  2138  05E3  0879               	movf	(lcd_goto@row),w
  2139  05E4  3E20               	addlw	_rowaddr&0ffh
  2140  05E5  0084               	movwf	fsr0
  2141  05E6  087B               	movf	(lcd_goto@col),w
  2142  05E7  1383               	bcf	status, 7	;select IRP bank0
  2143  05E8  0700               	addwf	indf,w
  2144  05E9  3880               	iorlw	080h
  2145  05EA  118A  2622  118A   	fcall	_lcd_send
  2146                           opt subtitle "HI-TECH Software Omniscient Code Generator (Lite mode) build 49521"
  2147                           
  2148  05ED                     l87:	
  2149  05ED  0008               	return
  2150                           opt subtitle "HI-TECH Software Omniscient Code Generator (Lite mode) build 49521"
  2151                           
  2152  05EE                     	__end_of_lcd_goto:
  2153                           opt subtitle "HI-TECH Software Omniscient Code Generator (Lite mode) build 49521"
  2154                           
  2155                           opt pagewidth 120
  2156                           
  2157                           	opt lm
  2158                           
  2159                           	processor	16F88
  2160                           clrc	macro
  2161                           	bcf	3,0
  2162                           	endm
  2163                           clrz	macro
  2164                           	bcf	3,2
  2165                           	endm
  2166                           setc	macro
  2167                           	bsf	3,0
  2168                           	endm
  2169                           setz	macro
  2170                           	bsf	3,2
  2171                           	endm
  2172                           skipc	macro
  2173                           	btfss	3,0
  2174                           	endm
  2175                           skipz	macro
  2176                           	btfss	3,2
  2177                           	endm
  2178                           skipnc	macro
  2179                           	btfsc	3,0
  2180                           	endm
  2181                           skipnz	macro
  2182                           	btfsc	3,2
  2183                           	endm
  2184                           indf	equ	0
  2185                           indf0	equ	0
  2186                           pc	equ	2
  2187                           pcl	equ	2
  2188                           status	equ	3
  2189                           fsr	equ	4
  2190                           fsr0	equ	4
  2191                           c	equ	1
  2192                           z	equ	0
  2193                           pclath	equ	10
  2194                           # 46 "C:\Program Files (x86)\Microchip\xc8\v1.12\include\pic16f88.h"
  2195                           INDF equ 00h ;# 
  2196                           # 52 "C:\Program Files (x86)\Microchip\xc8\v1.12\include\pic16f88.h"
  2197                           TMR0 equ 01h ;# 
  2198                           # 58 "C:\Program Files (x86)\Microchip\xc8\v1.12\include\pic16f88.h"
  2199  0622                     __ptext243:	;psect for function _lcd_send
  2200                           opt subtitle "HI-TECH Software Omniscient Code Generator (Lite mode) build 49521"
  2201                           
  2202                           opt pagewidth 120
  2203                           
  2204  0035                     	__size_of_lcd_send	equ	__end_of_lcd_send-_lcd_send
  2205                           opt subtitle "HI-TECH Software Omniscient Code Generator (Lite mode) build 49521"
  2206  0622                     _lcd_send:	
  2207                           opt subtitle "HI-TECH Software Omniscient Code Generator (Lite mode) build 49521"
  2208                           
  2209                           opt pagewidth 120
  2210                           
  2211  0622  00F8               	movwf	(lcd_send@data)
  2212                           opt subtitle "HI-TECH Software Omniscient Code Generator (Lite mode) build 49521"
  2213  0623                     l933:	
  2214                           opt subtitle "HI-TECH Software Omniscient Code Generator (Lite mode) build 49521"
  2215  0623  0876               	movf	(lcd_send@rs),w
  2216  0624  1D03               	skipz
  2217  0625  2E27               	goto	u180
  2218  0626  2E2E               	goto	l937
  2219  0627                     u180:
  2220                           opt subtitle "HI-TECH Software Omniscient Code Generator (Lite mode) build 49521"
  2221                           
  2222  0627                     l935:	
  2223                           opt subtitle "HI-TECH Software Omniscient Code Generator (Lite mode) build 49521"
  2224  0627  01F0               	clrf	(?_lcd_ioset)
  2225  0628  0AF0               	incf	(?_lcd_ioset),f
  2226  0629  3009               	movlw	(09h)
  2227  062A  118A  2657  118A   	fcall	_lcd_ioset
  2228  062D  2E33               	goto	l91
  2229                           opt subtitle "HI-TECH Software Omniscient Code Generator (Lite mode) build 49521"
  2230                           
  2231  062E                     l90:	
  2232                           opt subtitle "HI-TECH Software Omniscient Code Generator (Lite mode) build 49521"
  2233                           
  2234  062E                     l937:	
  2235                           opt subtitle "HI-TECH Software Omniscient Code Generator (Lite mode) build 49521"
  2236                           
  2237  062E  01F0               	clrf	(?_lcd_ioset)
  2238  062F  3009               	movlw	(09h)
  2239  0630  118A  2657  118A   	fcall	_lcd_ioset
  2240                           opt subtitle "HI-TECH Software Omniscient Code Generator (Lite mode) build 49521"
  2241  0633                     l91:	
  2242                           opt subtitle "HI-TECH Software Omniscient Code Generator (Lite mode) build 49521"
  2243                           
  2244  0633  01F0               	clrf	(?_lcd_ioset)
  2245  0634  300A               	movlw	(0Ah)
  2246  0635  118A  2657  118A   	fcall	_lcd_ioset
  2247                           opt subtitle "HI-TECH Software Omniscient Code Generator (Lite mode) build 49521"
  2248                           
  2249  0638                     l939:	
  2250                           opt subtitle "HI-TECH Software Omniscient Code Generator (Lite mode) build 49521"
  2251  0638  1283               	bcf	status, 5	;RP0=0, select bank0
  2252  0639  1303               	bcf	status, 6	;RP1=0, select bank0
  2253  063A  082B               	movf	(_iomode),w
  2254  063B  3A04               	xorlw	04h
  2255  063C  1D03               	skipz
  2256  063D  2E3F               	goto	u191
  2257  063E  2E40               	goto	u190
  2258  063F                     u191:
  2259  063F  2E51               	goto	l943
  2260  0640                     u190:
  2261                           opt subtitle "HI-TECH Software Omniscient Code Generator (Lite mode) build 49521"
  2262                           
  2263  0640                     l941:	
  2264                           opt subtitle "HI-TECH Software Omniscient Code Generator (Lite mode) build 49521"
  2265  0640  0878               	movf	(lcd_send@data),w
  2266  0641  00F7               	movwf	(??_lcd_send+0)+0
  2267  0642  3004               	movlw	04h
  2268  0643                     u205:
  2269  0643  1003               	clrc
  2270  0644  0CF7               	rrf	(??_lcd_send+0)+0,f
  2271  0645  3EFF               	addlw	-1
  2272  0646  1D03               	skipz
  2273  0647  2E43               	goto	u205
  2274  0648  0877               	movf	0+(??_lcd_send+0)+0,w
  2275  0649  118A  2587  118A   	fcall	_lcd_iowrite4
  2276                           opt subtitle "HI-TECH Software Omniscient Code Generator (Lite mode) build 49521"
  2277                           
  2278  064C  0878               	movf	(lcd_send@data),w
  2279  064D  118A  2587  118A   	fcall	_lcd_iowrite4
  2280                           opt subtitle "HI-TECH Software Omniscient Code Generator (Lite mode) build 49521"
  2281                           
  2282  0650  2E56               	goto	l94
  2283                           opt subtitle "HI-TECH Software Omniscient Code Generator (Lite mode) build 49521"
  2284  0651                     l92:	
  2285                           opt subtitle "HI-TECH Software Omniscient Code Generator (Lite mode) build 49521"
  2286                           
  2287  0651                     l943:	
  2288                           opt subtitle "HI-TECH Software Omniscient Code Generator (Lite mode) build 49521"
  2289  0651  0878               	movf	(lcd_send@data),w
  2290  0652  118A  2539  118A   	fcall	_lcd_iowrite8
  2291  0655  2E56               	goto	l94
  2292                           opt subtitle "HI-TECH Software Omniscient Code Generator (Lite mode) build 49521"
  2293                           
  2294  0656                     l93:	
  2295                           opt subtitle "HI-TECH Software Omniscient Code Generator (Lite mode) build 49521"
  2296                           
  2297  0656                     l94:	
  2298  0656  0008               	return
  2299                           opt subtitle "HI-TECH Software Omniscient Code Generator (Lite mode) build 49521"
  2300                           
  2301  0657                     	__end_of_lcd_send:
  2302                           opt subtitle "HI-TECH Software Omniscient Code Generator (Lite mode) build 49521"
  2303                           
  2304                           opt pagewidth 120
  2305                           
  2306                           	opt lm
  2307                           
  2308                           	processor	16F88
  2309                           clrc	macro
  2310                           	bcf	3,0
  2311                           	endm
  2312                           clrz	macro
  2313                           	bcf	3,2
  2314                           	endm
  2315                           setc	macro
  2316                           	bsf	3,0
  2317                           	endm
  2318                           setz	macro
  2319                           	bsf	3,2
  2320                           	endm
  2321                           skipc	macro
  2322                           	btfss	3,0
  2323                           	endm
  2324                           skipz	macro
  2325                           	btfss	3,2
  2326                           	endm
  2327                           skipnc	macro
  2328                           	btfsc	3,0
  2329                           	endm
  2330                           skipnz	macro
  2331                           	btfsc	3,2
  2332                           	endm
  2333                           indf	equ	0
  2334                           indf0	equ	0
  2335                           pc	equ	2
  2336                           pcl	equ	2
  2337                           status	equ	3
  2338                           fsr	equ	4
  2339  05A5                     __ptext244:	;psect for function _lcd_ioinit
  2340                           opt subtitle "HI-TECH Software Omniscient Code Generator (Lite mode) build 49521"
  2341                           
  2342                           opt pagewidth 120
  2343                           
  2344  0022                     	__size_of_lcd_ioinit	equ	__end_of_lcd_ioinit-_lcd_ioinit
  2345                           opt subtitle "HI-TECH Software Omniscient Code Generator (Lite mode) build 49521"
  2346  05A5                     _lcd_ioinit:	
  2347                           opt subtitle "HI-TECH Software Omniscient Code Generator (Lite mode) build 49521"
  2348                           
  2349                           opt pagewidth 120
  2350                           
  2351  05A5                     l893:	
  2352                           opt subtitle "HI-TECH Software Omniscient Code Generator (Lite mode) build 49521"
  2353  05A5  01F3               	clrf	(lcd_ioinit@i)
  2354                           opt subtitle "HI-TECH Software Omniscient Code Generator (Lite mode) build 49521"
  2355                           
  2356  05A6                     l895:	
  2357                           opt subtitle "HI-TECH Software Omniscient Code Generator (Lite mode) build 49521"
  2358  05A6  1683               	bsf	status, 5	;RP0=1, select bank1
  2359  05A7  1303               	bcf	status, 6	;RP1=0, select bank1
  2360  05A8  0185               	clrf	(133)^080h	;volatile
  2361                           opt subtitle "HI-TECH Software Omniscient Code Generator (Lite mode) build 49521"
  2362                           
  2363  05A9                     l897:	
  2364                           opt subtitle "HI-TECH Software Omniscient Code Generator (Lite mode) build 49521"
  2365  05A9  1006               	bcf	(134)^080h,0	;volatile
  2366                           opt subtitle "HI-TECH Software Omniscient Code Generator (Lite mode) build 49521"
  2367                           
  2368  05AA                     l899:	
  2369                           opt subtitle "HI-TECH Software Omniscient Code Generator (Lite mode) build 49521"
  2370  05AA  1086               	bcf	(134)^080h,1	;volatile
  2371                           opt subtitle "HI-TECH Software Omniscient Code Generator (Lite mode) build 49521"
  2372                           
  2373  05AB                     l901:	
  2374                           opt subtitle "HI-TECH Software Omniscient Code Generator (Lite mode) build 49521"
  2375  05AB  01F3               	clrf	(lcd_ioinit@i)
  2376                           opt subtitle "HI-TECH Software Omniscient Code Generator (Lite mode) build 49521"
  2377  05AC                     l903:	
  2378  05AC  3008               	movlw	(08h)
  2379  05AD  0273               	subwf	(lcd_ioinit@i),w
  2380  05AE  1C03               	skipc
  2381  05AF  2DB1               	goto	u161
  2382  05B0  2DB2               	goto	u160
  2383  05B1                     u161:
  2384  05B1  2DB4               	goto	l907
  2385  05B2                     u160:
  2386  05B2  2DC4               	goto	l913
  2387                           opt subtitle "HI-TECH Software Omniscient Code Generator (Lite mode) build 49521"
  2388  05B3                     l905:	
  2389  05B3  2DC4               	goto	l913
  2390                           opt subtitle "HI-TECH Software Omniscient Code Generator (Lite mode) build 49521"
  2391                           
  2392  05B4                     l122:	
  2393                           opt subtitle "HI-TECH Software Omniscient Code Generator (Lite mode) build 49521"
  2394  05B4                     l907:	
  2395                           opt subtitle "HI-TECH Software Omniscient Code Generator (Lite mode) build 49521"
  2396  05B4  01F0               	clrf	(?_lcd_ioset)
  2397  05B5  0873               	movf	(lcd_ioinit@i),w
  2398  05B6  118A  2657  118A   	fcall	_lcd_ioset
  2399                           opt subtitle "HI-TECH Software Omniscient Code Generator (Lite mode) build 49521"
  2400                           
  2401  05B9                     l909:	
  2402  05B9  3001               	movlw	(01h)
  2403  05BA  00F2               	movwf	(??_lcd_ioinit+0)+0
  2404  05BB  0872               	movf	(??_lcd_ioinit+0)+0,w
  2405  05BC  07F3               	addwf	(lcd_ioinit@i),f
  2406                           opt subtitle "HI-TECH Software Omniscient Code Generator (Lite mode) build 49521"
  2407  05BD                     l911:	
  2408  05BD  3008               	movlw	(08h)
  2409  05BE  0273               	subwf	(lcd_ioinit@i),w
  2410  05BF  1C03               	skipc
  2411  05C0  2DC2               	goto	u171
  2412  05C1  2DC3               	goto	u170
  2413  05C2                     u171:
  2414  05C2  2DB4               	goto	l907
  2415  05C3                     u170:
  2416  05C3  2DC4               	goto	l913
  2417                           opt subtitle "HI-TECH Software Omniscient Code Generator (Lite mode) build 49521"
  2418  05C4                     l123:	
  2419                           opt subtitle "HI-TECH Software Omniscient Code Generator (Lite mode) build 49521"
  2420                           
  2421  05C4                     l913:	
  2422                           opt subtitle "HI-TECH Software Omniscient Code Generator (Lite mode) build 49521"
  2423  05C4  3004               	movlw	(04h)
  2424  05C5  2DC6               	goto	l124
  2425                           opt subtitle "HI-TECH Software Omniscient Code Generator (Lite mode) build 49521"
  2426  05C6                     l915:	
  2427                           opt subtitle "HI-TECH Software Omniscient Code Generator (Lite mode) build 49521"
  2428                           
  2429  05C6                     l124:	
  2430  05C6  0008               	return
  2431                           opt subtitle "HI-TECH Software Omniscient Code Generator (Lite mode) build 49521"
  2432                           
  2433  05C7                     	__end_of_lcd_ioinit:
  2434                           opt subtitle "HI-TECH Software Omniscient Code Generator (Lite mode) build 49521"
  2435                           
  2436                           opt pagewidth 120
  2437                           
  2438                           	opt lm
  2439                           
  2440                           	processor	16F88
  2441                           clrc	macro
  2442                           	bcf	3,0
  2443                           	endm
  2444                           clrz	macro
  2445                           	bcf	3,2
  2446                           	endm
  2447                           setc	macro
  2448                           	bsf	3,0
  2449                           	endm
  2450                           setz	macro
  2451                           	bsf	3,2
  2452                           	endm
  2453                           skipc	macro
  2454                           	btfss	3,0
  2455                           	endm
  2456                           skipz	macro
  2457                           	btfss	3,2
  2458                           	endm
  2459                           skipnc	macro
  2460                           	btfsc	3,0
  2461                           	endm
  2462                           skipnz	macro
  2463                           	btfsc	3,2
  2464                           	endm
  2465                           indf	equ	0
  2466                           indf0	equ	0
  2467                           pc	equ	2
  2468                           pcl	equ	2
  2469                           status	equ	3
  2470  0587                     __ptext245:	;psect for function _lcd_iowrite4
  2471                           opt subtitle "HI-TECH Software Omniscient Code Generator (Lite mode) build 49521"
  2472                           
  2473                           opt pagewidth 120
  2474                           
  2475  001E                     	__size_of_lcd_iowrite4	equ	__end_of_lcd_iowrite4-_lcd_iowrite4
  2476                           opt subtitle "HI-TECH Software Omniscient Code Generator (Lite mode) build 49521"
  2477  0587                     _lcd_iowrite4:	
  2478                           opt subtitle "HI-TECH Software Omniscient Code Generator (Lite mode) build 49521"
  2479                           
  2480                           opt pagewidth 120
  2481  0587  00F4               	movwf	(lcd_iowrite4@data)
  2482                           opt subtitle "HI-TECH Software Omniscient Code Generator (Lite mode) build 49521"
  2483                           
  2484  0588                     l917:	
  2485                           opt subtitle "HI-TECH Software Omniscient Code Generator (Lite mode) build 49521"
  2486  0588  300F               	movlw	(0Fh)
  2487  0589  0574               	andwf	(lcd_iowrite4@data),w
  2488  058A  00F2               	movwf	(??_lcd_iowrite4+0)+0
  2489  058B  1283               	bcf	status, 5	;RP0=0, select bank0
  2490  058C  1303               	bcf	status, 6	;RP1=0, select bank0
  2491  058D  0805               	movf	(5),w	;volatile
  2492  058E  39F0               	andlw	0F0h
  2493  058F  0472               	iorwf	0+(??_lcd_iowrite4+0)+0,w
  2494  0590  00F3               	movwf	(??_lcd_iowrite4+1)+0
  2495  0591  0873               	movf	(??_lcd_iowrite4+1)+0,w
  2496  0592  00F5               	movwf	(lcd_iowrite4@xPortValue)
  2497                           opt subtitle "HI-TECH Software Omniscient Code Generator (Lite mode) build 49521"
  2498                           
  2499  0593                     l919:	
  2500                           opt subtitle "HI-TECH Software Omniscient Code Generator (Lite mode) build 49521"
  2501  0593  0875               	movf	(lcd_iowrite4@xPortValue),w
  2502  0594  0085               	movwf	(5)	;volatile
  2503                           opt subtitle "HI-TECH Software Omniscient Code Generator (Lite mode) build 49521"
  2504                           
  2505  0595                     l921:	
  2506                           opt subtitle "HI-TECH Software Omniscient Code Generator (Lite mode) build 49521"
  2507  0595  01F0               	clrf	(?_lcd_ioset)
  2508  0596  0AF0               	incf	(?_lcd_ioset),f
  2509  0597  3008               	movlw	(08h)
  2510  0598  118A  2657  118A   	fcall	_lcd_ioset
  2511                           opt subtitle "HI-TECH Software Omniscient Code Generator (Lite mode) build 49521"
  2512                           
  2513  059B                     l923:	
  2514                           opt subtitle "HI-TECH Software Omniscient Code Generator (Lite mode) build 49521"
  2515                           
  2516  059B  3003               movlw	3
  2517  059C  00F2               movwf	(??_lcd_iowrite4+0)+0,f
  2518  059D                     u487:
  2519  059D  0BF2               decfsz	(??_lcd_iowrite4+0)+0,f
  2520  059E  2D9D               	goto	u487
  2521                           opt subtitle "HI-TECH Software Omniscient Code Generator (Lite mode) build 49521"
  2522                           
  2523                           opt pagewidth 120
  2524                           
  2525  059F                     l925:	
  2526                           opt subtitle "HI-TECH Software Omniscient Code Generator (Lite mode) build 49521"
  2527  059F  01F0               	clrf	(?_lcd_ioset)
  2528  05A0  3008               	movlw	(08h)
  2529  05A1  118A  2657  118A   	fcall	_lcd_ioset
  2530                           opt subtitle "HI-TECH Software Omniscient Code Generator (Lite mode) build 49521"
  2531                           
  2532  05A4                     l143:	
  2533  05A4  0008               	return
  2534                           opt subtitle "HI-TECH Software Omniscient Code Generator (Lite mode) build 49521"
  2535                           
  2536  05A5                     	__end_of_lcd_iowrite4:
  2537                           opt subtitle "HI-TECH Software Omniscient Code Generator (Lite mode) build 49521"
  2538                           
  2539                           opt pagewidth 120
  2540                           
  2541                           	opt lm
  2542                           
  2543                           	processor	16F88
  2544                           clrc	macro
  2545                           	bcf	3,0
  2546                           	endm
  2547                           clrz	macro
  2548                           	bcf	3,2
  2549                           	endm
  2550                           setc	macro
  2551                           	bsf	3,0
  2552                           	endm
  2553                           setz	macro
  2554                           	bsf	3,2
  2555                           	endm
  2556                           skipc	macro
  2557                           	btfss	3,0
  2558                           	endm
  2559                           skipz	macro
  2560                           	btfss	3,2
  2561                           	endm
  2562                           skipnc	macro
  2563                           	btfsc	3,0
  2564                           	endm
  2565                           skipnz	macro
  2566                           	btfsc	3,2
  2567                           	endm
  2568                           indf	equ	0
  2569                           indf0	equ	0
  2570                           pc	equ	2
  2571  0539                     __ptext246:	;psect for function _lcd_iowrite8
  2572                           opt subtitle "HI-TECH Software Omniscient Code Generator (Lite mode) build 49521"
  2573                           
  2574                           opt pagewidth 120
  2575                           
  2576  0015                     	__size_of_lcd_iowrite8	equ	__end_of_lcd_iowrite8-_lcd_iowrite8
  2577                           opt subtitle "HI-TECH Software Omniscient Code Generator (Lite mode) build 49521"
  2578  0539                     _lcd_iowrite8:	
  2579                           opt subtitle "HI-TECH Software Omniscient Code Generator (Lite mode) build 49521"
  2580                           
  2581                           opt pagewidth 120
  2582  0539  00F3               	movwf	(lcd_iowrite8@cData)
  2583                           opt subtitle "HI-TECH Software Omniscient Code Generator (Lite mode) build 49521"
  2584                           
  2585  053A                     l927:	
  2586                           opt subtitle "HI-TECH Software Omniscient Code Generator (Lite mode) build 49521"
  2587  053A  0873               	movf	(lcd_iowrite8@cData),w
  2588  053B  1283               	bcf	status, 5	;RP0=0, select bank0
  2589  053C  1303               	bcf	status, 6	;RP1=0, select bank0
  2590  053D  0085               	movwf	(5)	;volatile
  2591                           opt subtitle "HI-TECH Software Omniscient Code Generator (Lite mode) build 49521"
  2592                           
  2593  053E                     l929:	
  2594                           opt subtitle "HI-TECH Software Omniscient Code Generator (Lite mode) build 49521"
  2595  053E  01F0               	clrf	(?_lcd_ioset)
  2596  053F  0AF0               	incf	(?_lcd_ioset),f
  2597  0540  3008               	movlw	(08h)
  2598  0541  118A  2657  118A   	fcall	_lcd_ioset
  2599                           opt subtitle "HI-TECH Software Omniscient Code Generator (Lite mode) build 49521"
  2600                           
  2601  0544                     l931:	
  2602                           opt subtitle "HI-TECH Software Omniscient Code Generator (Lite mode) build 49521"
  2603                           
  2604  0544  3003               movlw	3
  2605  0545  00F2               movwf	(??_lcd_iowrite8+0)+0,f
  2606  0546                     u497:
  2607  0546  0BF2               decfsz	(??_lcd_iowrite8+0)+0,f
  2608  0547  2D46               	goto	u497
  2609                           opt subtitle "HI-TECH Software Omniscient Code Generator (Lite mode) build 49521"
  2610                           
  2611                           opt pagewidth 120
  2612                           
  2613  0548  01F0               	clrf	(?_lcd_ioset)
  2614  0549  3008               	movlw	(08h)
  2615  054A  118A  2657  118A   	fcall	_lcd_ioset
  2616                           opt subtitle "HI-TECH Software Omniscient Code Generator (Lite mode) build 49521"
  2617                           
  2618  054D                     l146:	
  2619  054D  0008               	return
  2620                           opt subtitle "HI-TECH Software Omniscient Code Generator (Lite mode) build 49521"
  2621                           
  2622  054E                     	__end_of_lcd_iowrite8:
  2623                           opt subtitle "HI-TECH Software Omniscient Code Generator (Lite mode) build 49521"
  2624                           
  2625                           opt pagewidth 120
  2626                           
  2627                           	opt lm
  2628                           
  2629                           	processor	16F88
  2630                           clrc	macro
  2631                           	bcf	3,0
  2632                           	endm
  2633                           clrz	macro
  2634                           	bcf	3,2
  2635                           	endm
  2636                           setc	macro
  2637                           	bsf	3,0
  2638                           	endm
  2639                           setz	macro
  2640                           	bsf	3,2
  2641                           	endm
  2642                           skipc	macro
  2643                           	btfss	3,0
  2644                           	endm
  2645                           skipz	macro
  2646                           	btfss	3,2
  2647                           	endm
  2648                           skipnc	macro
  2649                           	btfsc	3,0
  2650                           	endm
  2651                           skipnz	macro
  2652                           	btfsc	3,2
  2653                           	endm
  2654                           indf	equ	0
  2655                           indf0	equ	0
  2656                           pc	equ	2
  2657                           pcl	equ	2
  2658                           status	equ	3
  2659                           fsr	equ	4
  2660  0657                     __ptext247:	;psect for function _lcd_ioset
  2661                           opt subtitle "HI-TECH Software Omniscient Code Generator (Lite mode) build 49521"
  2662                           
  2663                           opt pagewidth 120
  2664                           
  2665  0045                     	__size_of_lcd_ioset	equ	__end_of_lcd_ioset-_lcd_ioset
  2666                           opt subtitle "HI-TECH Software Omniscient Code Generator (Lite mode) build 49521"
  2667  0657                     _lcd_ioset:	
  2668                           opt subtitle "HI-TECH Software Omniscient Code Generator (Lite mode) build 49521"
  2669                           
  2670                           opt pagewidth 120
  2671  0657  00F1               	movwf	(lcd_ioset@pin)
  2672                           opt subtitle "HI-TECH Software Omniscient Code Generator (Lite mode) build 49521"
  2673                           
  2674  0658                     l871:	
  2675                           opt subtitle "HI-TECH Software Omniscient Code Generator (Lite mode) build 49521"
  2676  0658  2E8F               	goto	l887
  2677                           opt subtitle "HI-TECH Software Omniscient Code Generator (Lite mode) build 49521"
  2678                           
  2679                           opt pagewidth 120
  2680  0659                     l128:	
  2681                           opt subtitle "HI-TECH Software Omniscient Code Generator (Lite mode) build 49521"
  2682                           
  2683  0659  2E9B               	goto	l140
  2684                           opt subtitle "HI-TECH Software Omniscient Code Generator (Lite mode) build 49521"
  2685                           
  2686                           opt pagewidth 120
  2687  065A                     l130:	
  2688                           opt subtitle "HI-TECH Software Omniscient Code Generator (Lite mode) build 49521"
  2689                           
  2690  065A  2E9B               	goto	l140
  2691                           opt subtitle "HI-TECH Software Omniscient Code Generator (Lite mode) build 49521"
  2692                           
  2693                           opt pagewidth 120
  2694  065B                     l131:	
  2695                           opt subtitle "HI-TECH Software Omniscient Code Generator (Lite mode) build 49521"
  2696                           
  2697  065B  2E9B               	goto	l140
  2698                           opt subtitle "HI-TECH Software Omniscient Code Generator (Lite mode) build 49521"
  2699                           
  2700                           opt pagewidth 120
  2701  065C                     l132:	
  2702                           opt subtitle "HI-TECH Software Omniscient Code Generator (Lite mode) build 49521"
  2703                           
  2704  065C  2E9B               	goto	l140
  2705                           opt subtitle "HI-TECH Software Omniscient Code Generator (Lite mode) build 49521"
  2706                           
  2707                           opt pagewidth 120
  2708  065D                     l133:	
  2709                           opt subtitle "HI-TECH Software Omniscient Code Generator (Lite mode) build 49521"
  2710                           
  2711  065D                     l873:	
  2712                           opt subtitle "HI-TECH Software Omniscient Code Generator (Lite mode) build 49521"
  2713  065D  0870               	movf	(lcd_ioset@level),w
  2714  065E  1283               	bcf	status, 5	;RP0=0, select bank0
  2715  065F  1303               	bcf	status, 6	;RP1=0, select bank0
  2716  0660  1D03               	skipz
  2717  0661  1405               	bsf	(5),0	;volatile
  2718  0662  1903               	skipnz
  2719  0663  1005               	bcf	(5),0	;volatile
  2720                           opt subtitle "HI-TECH Software Omniscient Code Generator (Lite mode) build 49521"
  2721                           
  2722  0664  2E9B               	goto	l140
  2723                           opt subtitle "HI-TECH Software Omniscient Code Generator (Lite mode) build 49521"
  2724                           
  2725                           opt pagewidth 120
  2726  0665                     l134:	
  2727                           opt subtitle "HI-TECH Software Omniscient Code Generator (Lite mode) build 49521"
  2728                           
  2729  0665                     l875:	
  2730                           opt subtitle "HI-TECH Software Omniscient Code Generator (Lite mode) build 49521"
  2731  0665  0870               	movf	(lcd_ioset@level),w
  2732  0666  1283               	bcf	status, 5	;RP0=0, select bank0
  2733  0667  1303               	bcf	status, 6	;RP1=0, select bank0
  2734  0668  1D03               	skipz
  2735  0669  1485               	bsf	(5),1	;volatile
  2736  066A  1903               	skipnz
  2737  066B  1085               	bcf	(5),1	;volatile
  2738                           opt subtitle "HI-TECH Software Omniscient Code Generator (Lite mode) build 49521"
  2739                           
  2740  066C  2E9B               	goto	l140
  2741                           opt subtitle "HI-TECH Software Omniscient Code Generator (Lite mode) build 49521"
  2742                           
  2743                           opt pagewidth 120
  2744  066D                     l135:	
  2745                           opt subtitle "HI-TECH Software Omniscient Code Generator (Lite mode) build 49521"
  2746                           
  2747  066D                     l877:	
  2748                           opt subtitle "HI-TECH Software Omniscient Code Generator (Lite mode) build 49521"
  2749  066D  0870               	movf	(lcd_ioset@level),w
  2750  066E  1283               	bcf	status, 5	;RP0=0, select bank0
  2751  066F  1303               	bcf	status, 6	;RP1=0, select bank0
  2752  0670  1D03               	skipz
  2753  0671  1505               	bsf	(5),2	;volatile
  2754  0672  1903               	skipnz
  2755  0673  1105               	bcf	(5),2	;volatile
  2756                           opt subtitle "HI-TECH Software Omniscient Code Generator (Lite mode) build 49521"
  2757                           
  2758  0674  2E9B               	goto	l140
  2759                           opt subtitle "HI-TECH Software Omniscient Code Generator (Lite mode) build 49521"
  2760                           
  2761                           opt pagewidth 120
  2762  0675                     l136:	
  2763                           opt subtitle "HI-TECH Software Omniscient Code Generator (Lite mode) build 49521"
  2764                           
  2765  0675                     l879:	
  2766                           opt subtitle "HI-TECH Software Omniscient Code Generator (Lite mode) build 49521"
  2767  0675  0870               	movf	(lcd_ioset@level),w
  2768  0676  1283               	bcf	status, 5	;RP0=0, select bank0
  2769  0677  1303               	bcf	status, 6	;RP1=0, select bank0
  2770  0678  1D03               	skipz
  2771  0679  1585               	bsf	(5),3	;volatile
  2772  067A  1903               	skipnz
  2773  067B  1185               	bcf	(5),3	;volatile
  2774                           opt subtitle "HI-TECH Software Omniscient Code Generator (Lite mode) build 49521"
  2775                           
  2776  067C  2E9B               	goto	l140
  2777                           opt subtitle "HI-TECH Software Omniscient Code Generator (Lite mode) build 49521"
  2778                           
  2779                           opt pagewidth 120
  2780  067D                     l137:	
  2781                           opt subtitle "HI-TECH Software Omniscient Code Generator (Lite mode) build 49521"
  2782                           
  2783  067D                     l881:	
  2784                           opt subtitle "HI-TECH Software Omniscient Code Generator (Lite mode) build 49521"
  2785  067D  0870               	movf	(lcd_ioset@level),w
  2786  067E  1283               	bcf	status, 5	;RP0=0, select bank0
  2787  067F  1303               	bcf	status, 6	;RP1=0, select bank0
  2788  0680  1D03               	skipz
  2789  0681  1486               	bsf	(6),1	;volatile
  2790  0682  1903               	skipnz
  2791  0683  1086               	bcf	(6),1	;volatile
  2792                           opt subtitle "HI-TECH Software Omniscient Code Generator (Lite mode) build 49521"
  2793                           
  2794  0684  2E9B               	goto	l140
  2795                           opt subtitle "HI-TECH Software Omniscient Code Generator (Lite mode) build 49521"
  2796                           
  2797                           opt pagewidth 120
  2798  0685                     l138:	
  2799                           opt subtitle "HI-TECH Software Omniscient Code Generator (Lite mode) build 49521"
  2800                           
  2801  0685                     l883:	
  2802                           opt subtitle "HI-TECH Software Omniscient Code Generator (Lite mode) build 49521"
  2803  0685  0870               	movf	(lcd_ioset@level),w
  2804  0686  1283               	bcf	status, 5	;RP0=0, select bank0
  2805  0687  1303               	bcf	status, 6	;RP1=0, select bank0
  2806  0688  1D03               	skipz
  2807  0689  1406               	bsf	(6),0	;volatile
  2808  068A  1903               	skipnz
  2809  068B  1006               	bcf	(6),0	;volatile
  2810                           opt subtitle "HI-TECH Software Omniscient Code Generator (Lite mode) build 49521"
  2811                           
  2812  068C  2E9B               	goto	l140
  2813                           opt subtitle "HI-TECH Software Omniscient Code Generator (Lite mode) build 49521"
  2814                           
  2815                           opt pagewidth 120
  2816  068D                     l139:	
  2817                           opt subtitle "HI-TECH Software Omniscient Code Generator (Lite mode) build 49521"
  2818                           
  2819  068D  2E9B               	goto	l140
  2820                           opt subtitle "HI-TECH Software Omniscient Code Generator (Lite mode) build 49521"
  2821                           
  2822  068E                     l885:	
  2823                           opt subtitle "HI-TECH Software Omniscient Code Generator (Lite mode) build 49521"
  2824  068E  2E9B               	goto	l140
  2825                           opt subtitle "HI-TECH Software Omniscient Code Generator (Lite mode) build 49521"
  2826                           
  2827  068F                     l127:	
  2828                           opt subtitle "HI-TECH Software Omniscient Code Generator (Lite mode) build 49521"
  2829  068F                     l887:	
  2830  068F  0871               	movf	(lcd_ioset@pin),w
  2831                           opt subtitle "HI-TECH Software Omniscient Code Generator (Lite mode) build 49521"
  2832                           
  2833                           opt pagewidth 120
  2834                           
  2835                           	opt lm
  2836                           
  2837                           	processor	16F88
  2838                           clrc	macro
  2839                           	bcf	3,0
  2840                           	endm
  2841                           clrz	macro
  2842                           	bcf	3,2
  2843  0690  0084               	movwf fsr
  2844  0691  300B               	movlw	11
  2845  0692  0204               	subwf	fsr,w
  2846  0693  1803               skipnc
  2847  0694  2E9B               goto l140
  2848  0695  3000               movlw high(S1103)
  2849  0696  008A               movwf pclath
  2850  0697  1003               	clrc
  2851  0698  0D04               	rlf fsr,w
  2852  0699  3E45               	addlw low(S1103)
  2853  069A  0082               	movwf pc
  2854                           opt subtitle "HI-TECH Software Omniscient Code Generator (Lite mode) build 49521"
  2855                           
  2856  0045                     __pswtext1:
  2857  0045                     S1103:
  2858  0045  118A  2E9B         	ljmp	l140
  2859  0047  118A  2E9B         	ljmp	l140
  2860  0049  118A  2E9B         	ljmp	l140
  2861  004B  118A  2E9B         	ljmp	l140
  2862  004D  118A  2E5D         	ljmp	l873
  2863  004F  118A  2E65         	ljmp	l875
  2864  0051  118A  2E6D         	ljmp	l877
  2865  0053  118A  2E75         	ljmp	l879
  2866  0055  118A  2E85         	ljmp	l883
  2867  0057  118A  2E7D         	ljmp	l881
  2868  0059  118A  2E9B         	ljmp	l140
  2869                           opt subtitle "HI-TECH Software Omniscient Code Generator (Lite mode) build 49521"
  2870                           
  2871                           opt pagewidth 120
  2872                           
  2873  069B                     l129:	
  2874                           opt subtitle "HI-TECH Software Omniscient Code Generator (Lite mode) build 49521"
  2875                           
  2876  069B                     l140:	
  2877  069B  0008               	return
  2878                           opt subtitle "HI-TECH Software Omniscient Code Generator (Lite mode) build 49521"
  2879                           
  2880  069C                     	__end_of_lcd_ioset:
  2881                           opt subtitle "HI-TECH Software Omniscient Code Generator (Lite mode) build 49521"
  2882                           
  2883                           opt pagewidth 120
  2884  0000                     __ptext248:	;psect for function _lcd_ioset
  2885                           opt subtitle "HI-TECH Software Omniscient Code Generator (Lite mode) build 49521"
  2886  007E                     	btemp set 07Eh
  2887                           opt subtitle "HI-TECH Software Omniscient Code Generator (Lite mode) build 49521"
  2888                           
  2889                           opt pagewidth 120
  2890  007E                     	wtemp0 set btemp


Data Sizes:
    Strings     29
    Constant    32
    Data        6
    BSS         1
    Persistent  1
    Stack       0

Auto Spaces:
    Space          Size  Autos    Used
    COMMON           14     14      14
    BANK0            80      5      13
    BANK1            80      0       0
    BANK3            96      0       0
    BANK2            96      0       0

Pointer List with Targets:

    lcd_ioinit@iodata	PTR void  size(1) Largest target is 0
		 -> NULL(NULL[0]), 

    lcd_create_char@chardata	PTR const unsigned char  size(1) Largest target is 8
		 -> arrowd(CODE[8]), arrowl(CODE[8]), arrowu(CODE[8]), arrowr(CODE[8]), 

    lcd_puts@string	PTR const unsigned char  size(1) Largest target is 17
		 -> STR_2(CODE[12]), STR_1(CODE[17]), 

    lcd_init@iodata	PTR void  size(1) Largest target is 0
		 -> NULL(NULL[0]), 


Critical Paths under _main in COMMON

    _main->_lcd_init
    _lcd_init->_lcd_send
    _lcd_create_char->_lcd_send
    _lcd_clear->_lcd_send
    _lcd_on->_lcd_send
    _lcd_puts->_lcd_send
    _lcd_goto->_lcd_send
    _lcd_send->_lcd_iowrite4
    _lcd_ioinit->_lcd_ioset
    _lcd_iowrite4->_lcd_ioset
    _lcd_iowrite8->_lcd_ioset

Critical Paths under _main in BANK0

    None.

Critical Paths under _main in BANK1

    None.

Critical Paths under _main in BANK3

    None.

Critical Paths under _main in BANK2

    None.

Call Graph Tables:

 ---------------------------------------------------------------------------------
 (Depth) Function   	        Calls       Base Space   Used Autos Params    Refs
 ---------------------------------------------------------------------------------
 (0) _main                                                 5     5      0    5123
                                              0 BANK0      5     5      0
                           _lcd_init
                    _lcd_create_char
                          _lcd_clear
                             _lcd_on
                           _lcd_puts
                           _lcd_goto
                           _lcd_send
 ---------------------------------------------------------------------------------
 (1) _lcd_init                                             5     3      2    1105
                                              9 COMMON     5     3      2
                         _lcd_ioinit
                       _lcd_iowrite4
                           _lcd_send
 ---------------------------------------------------------------------------------
 (1) _lcd_create_char                                      4     3      1     730
                                              9 COMMON     4     3      1
                           _lcd_send
 ---------------------------------------------------------------------------------
 (1) _lcd_clear                                            2     2      0     617
                                              9 COMMON     2     2      0
                           _lcd_send
 ---------------------------------------------------------------------------------
 (1) _lcd_on                                               1     1      0     617
                                              9 COMMON     1     1      0
                           _lcd_send
 ---------------------------------------------------------------------------------
 (1) _lcd_puts                                             2     2      0     662
                                              9 COMMON     2     2      0
                           _lcd_send
 ---------------------------------------------------------------------------------
 (1) _lcd_goto                                             3     2      1     707
                                              9 COMMON     3     2      1
                           _lcd_send
 ---------------------------------------------------------------------------------
 (1) _lcd_send                                             3     2      1     617
                                              6 COMMON     3     2      1
                          _lcd_ioset
                       _lcd_iowrite4
                       _lcd_iowrite8
 ---------------------------------------------------------------------------------
 (2) _lcd_ioinit                                           3     3      0     223
                                              2 COMMON     2     2      0
                          _lcd_ioset
 ---------------------------------------------------------------------------------
 (2) _lcd_iowrite4                                         4     4      0     199
                                              2 COMMON     4     4      0
                          _lcd_ioset
 ---------------------------------------------------------------------------------
 (2) _lcd_iowrite8                                         2     2      0     176
                                              2 COMMON     2     2      0
                          _lcd_ioset
 ---------------------------------------------------------------------------------
 (3) _lcd_ioset                                            2     1      1     154
                                              0 COMMON     2     1      1
 ---------------------------------------------------------------------------------
 Estimated maximum stack depth 3
 ---------------------------------------------------------------------------------

 Call Graph Graphs:

 _main (ROOT)
   _lcd_init
     _lcd_ioinit
       _lcd_ioset
     _lcd_iowrite4
       _lcd_ioset
     _lcd_send
       _lcd_ioset
       _lcd_iowrite4
         _lcd_ioset
       _lcd_iowrite8
         _lcd_ioset
   _lcd_create_char
     _lcd_send
       _lcd_ioset
       _lcd_iowrite4
         _lcd_ioset
       _lcd_iowrite8
         _lcd_ioset
   _lcd_clear
     _lcd_send
       _lcd_ioset
       _lcd_iowrite4
         _lcd_ioset
       _lcd_iowrite8
         _lcd_ioset
   _lcd_on
     _lcd_send
       _lcd_ioset
       _lcd_iowrite4
         _lcd_ioset
       _lcd_iowrite8
         _lcd_ioset
   _lcd_puts
     _lcd_send
       _lcd_ioset
       _lcd_iowrite4
         _lcd_ioset
       _lcd_iowrite8
         _lcd_ioset
   _lcd_goto
     _lcd_send
       _lcd_ioset
       _lcd_iowrite4
         _lcd_ioset
       _lcd_iowrite8
         _lcd_ioset
   _lcd_send
     _lcd_ioset
     _lcd_iowrite4
       _lcd_ioset
     _lcd_iowrite8
       _lcd_ioset

 Address spaces:
Name               Size   Autos  Total    Cost      Usage
BANK3               60      0       0       9        0.0%
BITBANK3            60      0       0       8        0.0%
SFR3                 0      0       0       4        0.0%
BITSFR3              0      0       0       4        0.0%
BANK2               60      0       0      11        0.0%
BITBANK2            60      0       0      10        0.0%
SFR2                 0      0       0       5        0.0%
BITSFR2              0      0       0       5        0.0%
BANK1               50      0       0       7        0.0%
BITBANK1            50      0       0       6        0.0%
SFR1                 0      0       0       2        0.0%
BITSFR1              0      0       0       2        0.0%
BANK0               50      5       D       5       16.3%
BITBANK0            50      0       0       4        0.0%
SFR0                 0      0       0       1        0.0%
BITSFR0              0      0       0       1        0.0%
COMMON               E      E       E       1      100.0%
BITCOMMON            E      0       0       0        0.0%
CODE                 0      0       0       0        0.0%
DATA                 0      0      1F      12        0.0%
ABS                  0      0      1B       3        0.0%
NULL                 0      0       0       0        0.0%
STACK                0      0       4       2        0.0%
EEDATA             100      0       0       0        0.0%


Microchip Technology PIC Macro Assembler V1.12 build 49521 
Symbol Table                                                                                   Fri Aug 01 13:22:16 2014

           ?_lcd_iowrite4 0070             ?_lcd_iowrite8 0070                         pc 0002  
             __CFG_CP$OFF 0000                        l35 07A2                        l36 07B5  
                      l37 07FD                        l70 0538                        l38 07FE  
                      l39 07FE                        l64 06F1                        l65 0726  
                      l90 062E                        l66 0725                        l91 0633  
                      l67 0749                        l92 0651                        l76 0529  
                      l93 0656                        l85 05D6                        l94 0656  
                      l86 05E2                        l87 05ED                        l97 057B  
                      l98 056C                        l99 0586                        fsr 0004  
                     l100 0586                       l103 060B                       l104 0621  
                     l105 0621                       l130 065A                       l122 05B4  
                     l131 065B                       l123 05C4                       l132 065C  
                     l140 069B                       l124 05C6                       l133 065D  
                     l134 0665                       l127 068F                       l135 066D  
                     l143 05A4                       l136 0675                       l128 0659  
                     l129 069B                       l137 067D                       l138 0685  
                     l146 054D                       l139 068D                       l901 05AB  
                     l911 05BD                       l903 05AC                       l921 0595  
                     l905 05B3                       l913 05C4                       l931 0544  
                     l923 059B                       l915 05C6                       l907 05B4  
                     l925 059F                       l917 0588                       l909 05B9  
                     l941 0640                       l933 0623                       l871 0658  
                     l927 053A                       l919 0593                       l943 0651  
                     l935 0627                       l951 06AE                       l881 067D  
                     l873 065D                       l929 053E                       l937 062E  
                     l961 06D4                       l953 06B7                       l945 069D  
                     l883 0685                       l875 0665                       l939 0638  
                     l971 06F9                       l963 06D8                       l955 06BF  
                     l947 06A6                       l885 068E                       l877 066D  
                     l893 05A5                       l981 071F                       l973 06FE  
                     l965 06E1                       l957 06C3                       l949 06AA  
                     l879 0675                       l887 068F                       l895 05A6  
                     l991 0749                       l975 0706                       l983 0726  
                     l967 06E6                       l959 06CB                       l897 05A9  
                     l993 05EF                       l985 0730                       l977 0710  
                     l969 06F1                       l899 05AA                       l995 05F3  
                     l987 0735                       l979 0715                       l997 0602  
                     l989 0743                       l999 0603                       u210 06BF  
                     u211 06BE                       u220 06F9                       u300 07FC  
                     u205 0643                       u221 06F8                       u301 07FB  
                     u160 05B2                       u240 0609                       u161 05B1  
                     u241 0608                       u305 07F8                       u170 05C3  
                     u250 0620                       u171 05C2                       u251 061F  
                     u235 05F7                       u180 0627                       u260 0585  
                     u261 0584                       u317 07BD                       u190 0640  
                     u270 05D0                       u191 063F                       u271 05CF  
                     u407 070D                       u327 07CD                       u280 05DC  
                     u281 05DB                       u417 0717                       u337 06B2  
                     u290 07B3              __CFG_CPD$OFF 0000                       u427 0721  
                     u347 06C7                       u291 07B2                       u437 072D  
                     u357 06D1                       u447 0739                       u367 06DA  
                     u295 07AF                       u457 0745                       u377 06E3  
                     u467 0533                       u387 06ED                       u477 0526  
                     u397 0702                       u487 059D                       u497 0546  
        lcd_ioinit@iodata 0070                       fsr0 0004                       indf 0000  
             lcd_goto@col 007B               lcd_goto@row 0079              __CFG_FOSC$XT 0000  
             lcd_ioinit@i 0073                      S1103 0045              __CFG_LVP$OFF 0000  
                    l1001 060A                      l1011 052F                      l1003 060B  
                    l1021 056C                      l1013 051B                      l1005 0616  
                    l1031 05D6                      l1023 0576                      l1015 051E  
                    l1007 061A                      l1033 05DC                      l1025 057B  
                    l1017 0524                      l1009 052A                      l1041 074F  
                    l1035 05E2                      l1027 05C8                      l1019 056B  
                    l1051 077D                      l1043 0751                      l1029 05D0  
                    l1061 0797                      l1053 0787                      l1045 075F  
                    l1037 074A                      l1071 07B5                      l1063 079B  
                    l1055 078A                      l1047 0769                      l1039 074D  
                    l1081 07EF                      l1073 07C4                      l1065 07A2  
                    l1057 078D                      l1049 0773                      l1075 07D4  
                    l1067 07A6                      l1059 0791                      l1077 07D7  
                    l1069 07B4                      l1079 07DD                      STR_1 0028  
                    STR_2 0039              __CFG_WRT$OFF 0000                      _main 074A  
                    btemp 007E              lcd_init@cols 0079              lcd_init@rows 007A  
                    start 0000             __CFG_IESO$OFF 0000             __CFG_MCLRE$ON 0000  
          ??_lcd_iowrite4 0072            ??_lcd_iowrite8 0072              lcd_ioset@pin 0071  
            lcd_send@data 0078                     ?_main 0070             __CFG_WDTE$OFF 0000  
                   _ANSEL 009B                     _PORTA 0005                     _TRISA 0085  
                   _TRISB 0086            __CFG_CCPMX$RB0 0000            __CFG_FCMEN$OFF 0000  
                   main@i 0029            __CFG_BOREN$OFF 0000                     pclath 000A  
                   status 0003                     wtemp0 007E           __initialization 054E  
            __end_of_main 0800                    ??_main 0026            __CFG_PWRTE$OFF 0000  
        __end_of_lcd_init 074A          __end_of_lcd_goto 05EE          __end_of_lcd_send 0657  
        __end_of_lcd_puts 0587                    _lcd_on 051B  __size_of_lcd_create_char 0034  
                  _arrowd 0008                    _arrowl 0010                    _arrowr 0018  
                  _arrowu 0020                    _iomode 002B            lcd_init@iodata 007D  
    __end_of_lcd_iowrite4 05A5      __end_of_lcd_iowrite8 054E   __end_of__initialization 0567  
          __pcstackCOMMON 0070              __pidataBANK0 0515            lcd_ioset@level 0070  
        lcd_iowrite4@data 0074        __size_of_lcd_clear 000F        __size_of_lcd_ioset 0045  
              __pbssBANK0 002C                __pmaintext 074A    lcd_create_char@charnum 007B  
                 ?_lcd_on 0070         ??_lcd_create_char 007A                _lcd_ioinit 05A5  
              _lcdcolumns 0024                 ?_lcd_init 0079                 ?_lcd_goto 0079  
               ?_lcd_send 0076                 ?_lcd_puts 0070                __stringtab 0002  
       __end_of_lcd_clear 0539         __end_of_lcd_ioset 069C           __size_of_lcd_on 000F  
   __size_of_lcd_iowrite4 001E     __size_of_lcd_iowrite8 0015                   _lcdrows 0025  
                 _rowaddr 0020                ??_lcd_init 007B                ??_lcd_goto 007A  
              ??_lcd_send 0077                ??_lcd_puts 0079      end_of_initialization 0567  
          lcd_puts@string 007A              _lcd_iowrite4 0587              _lcd_iowrite8 0539  
               _PORTAbits 0005                 _PORTBbits 0006                 _TRISBbits 0086  
             ?_lcd_ioinit 0070                lcd_send@rs 0076            __end_of_lcd_on 052A  
          __end_of_arrowd 0010            __end_of_arrowl 0018            __end_of_arrowr 0020  
          __end_of_arrowu 0028       start_initialization 054E          lcd_create_char@i 007C  
       lcd_iowrite8@cData 0073       __size_of_lcd_ioinit 0022           _lcd_create_char 05EE  
                ??_lcd_on 0079               __pdataBANK0 0020             __pcstackBANK0 0026  
     __end_of__stringdata 0045         __size_of_lcd_init 00AE         __size_of_lcd_goto 0027  
       __size_of_lcd_send 0035         __size_of_lcd_puts 001D                 __pnvBANK0 002B  
 lcd_create_char@chardata 0079                 __ptext240 051B                 __ptext241 056A  
               __ptext242 05C7                 __ptext243 0622                 __ptext244 05A5  
               __ptext245 0587                 __ptext237 069C                 __ptext246 0539  
               __ptext238 05EE                 __ptext247 0657                 __ptext239 052A  
               __ptext248 0000                 _lcd_clear 052A                 _lcd_ioset 0657  
               __pstrings 0002                 __pswtext1 0045   __end_of_lcd_create_char 0622  
              ?_lcd_clear 0070                ?_lcd_ioset 0070               __stringbase 0007  
             __stringdata 0028              ??_lcd_ioinit 0072        __end_of_lcd_ioinit 05C7  
      __end_of__stringtab 0008                  _lcd_init 069C                  _lcd_goto 05C7  
                _lcd_send 0622                  _dispctrl 002C                  _lcd_puts 056A  
           __size_of_main 00B6          ?_lcd_create_char 0079               ??_lcd_clear 0079  
             ??_lcd_ioset 0071    lcd_iowrite4@xPortValue 0075                 stringcode 0002  
                stringdir 0002                  stringtab 0002  
