

Microchip Technology PIC LITE Macro Assembler V1.21 build 54009 
                                                                                               Sat Aug  2 05:18:08 2014

Microchip Technology Omniscient Code Generator (Lite mode) build 54009
     1                           	processor	16F88
     2                           	opt	pw 120
     3                           	opt	lm
     4                           	psect	idataBANK0,global,class=CODE,delta=2
     5                           	psect	strings,global,class=STRING,delta=2
     6                           	psect	nvBANK0,global,class=BANK0,space=1,delta=1
     7                           	psect	cinit,global,class=CODE,merge=1,delta=2
     8                           	psect	bssBANK0,global,class=BANK0,space=1,delta=1
     9                           	psect	dataBANK0,global,class=BANK0,space=1,delta=1
    10                           	psect	cstackCOMMON,global,class=COMMON,space=1,delta=1
    11                           	psect	cstackBANK0,global,class=BANK0,space=1,delta=1
    12                           	psect	maintext,global,class=CODE,split=1,delta=2
    13                           	psect	text1,local,class=CODE,merge=1,delta=2
    14                           	psect	text2,local,class=CODE,merge=1,delta=2
    15                           	psect	text3,local,class=CODE,merge=1,delta=2
    16                           	psect	text4,local,class=CODE,merge=1,delta=2
    17                           	psect	text5,local,class=CODE,merge=1,delta=2
    18                           	psect	text6,local,class=CODE,merge=1,delta=2
    19                           	psect	text7,local,class=CODE,merge=1,delta=2
    20                           	psect	text8,local,class=CODE,merge=1,delta=2
    21                           	psect	text9,local,class=CODE,merge=1,delta=2
    22                           	psect	text10,local,class=CODE,merge=1,delta=2
    23                           	psect	text11,local,class=CODE,merge=1,delta=2
    24                           	psect	swtext1,local,class=CONST,delta=2
    25                           	dabs	1,0x7E,2
    26  0000                     	;# 
    27  0001                     	;# 
    28  0002                     	;# 
    29  0003                     	;# 
    30  0004                     	;# 
    31  0005                     	;# 
    32  0006                     	;# 
    33  000A                     	;# 
    34  000B                     	;# 
    35  000C                     	;# 
    36  000D                     	;# 
    37  000E                     	;# 
    38  000E                     	;# 
    39  000F                     	;# 
    40  0010                     	;# 
    41  0011                     	;# 
    42  0012                     	;# 
    43  0013                     	;# 
    44  0014                     	;# 
    45  0015                     	;# 
    46  0015                     	;# 
    47  0016                     	;# 
    48  0017                     	;# 
    49  0018                     	;# 
    50  0019                     	;# 
    51  001A                     	;# 
    52  001E                     	;# 
    53  001F                     	;# 
    54  0081                     	;# 
    55  0085                     	;# 
    56  0086                     	;# 
    57  008C                     	;# 
    58  008D                     	;# 
    59  008E                     	;# 
    60  008F                     	;# 
    61  0090                     	;# 
    62  0092                     	;# 
    63  0093                     	;# 
    64  0094                     	;# 
    65  0098                     	;# 
    66  0099                     	;# 
    67  009B                     	;# 
    68  009C                     	;# 
    69  009D                     	;# 
    70  009E                     	;# 
    71  009F                     	;# 
    72  0105                     	;# 
    73  010C                     	;# 
    74  010D                     	;# 
    75  010E                     	;# 
    76  010F                     	;# 
    77  018C                     	;# 
    78  018D                     	;# 
    79  0000                     	;# 
    80  0001                     	;# 
    81  0002                     	;# 
    82  0003                     	;# 
    83  0004                     	;# 
    84  0005                     	;# 
    85  0006                     	;# 
    86  000A                     	;# 
    87  000B                     	;# 
    88  000C                     	;# 
    89  000D                     	;# 
    90  000E                     	;# 
    91  000E                     	;# 
    92  000F                     	;# 
    93  0010                     	;# 
    94  0011                     	;# 
    95  0012                     	;# 
    96  0013                     	;# 
    97  0014                     	;# 
    98  0015                     	;# 
    99  0015                     	;# 
   100  0016                     	;# 
   101  0017                     	;# 
   102  0018                     	;# 
   103  0019                     	;# 
   104  001A                     	;# 
   105  001E                     	;# 
   106  001F                     	;# 
   107  0081                     	;# 
   108  0085                     	;# 
   109  0086                     	;# 
   110  008C                     	;# 
   111  008D                     	;# 
   112  008E                     	;# 
   113  008F                     	;# 
   114  0090                     	;# 
   115  0092                     	;# 
   116  0093                     	;# 
   117  0094                     	;# 
   118  0098                     	;# 
   119  0099                     	;# 
   120  009B                     	;# 
   121  009C                     	;# 
   122  009D                     	;# 
   123  009E                     	;# 
   124  009F                     	;# 
   125  0105                     	;# 
   126  010C                     	;# 
   127  010D                     	;# 
   128  010E                     	;# 
   129  010F                     	;# 
   130  018C                     	;# 
   131  018D                     	;# 
   132  0000                     	;# 
   133  0001                     	;# 
   134  0002                     	;# 
   135  0003                     	;# 
   136  0004                     	;# 
   137  0005                     	;# 
   138  0006                     	;# 
   139  000A                     	;# 
   140  000B                     	;# 
   141  000C                     	;# 
   142  000D                     	;# 
   143  000E                     	;# 
   144  000E                     	;# 
   145  000F                     	;# 
   146  0010                     	;# 
   147  0011                     	;# 
   148  0012                     	;# 
   149  0013                     	;# 
   150  0014                     	;# 
   151  0015                     	;# 
   152  0015                     	;# 
   153  0016                     	;# 
   154  0017                     	;# 
   155  0018                     	;# 
   156  0019                     	;# 
   157  001A                     	;# 
   158  001E                     	;# 
   159  001F                     	;# 
   160  0081                     	;# 
   161  0085                     	;# 
   162  0086                     	;# 
   163  008C                     	;# 
   164  008D                     	;# 
   165  008E                     	;# 
   166  008F                     	;# 
   167  0090                     	;# 
   168  0092                     	;# 
   169  0093                     	;# 
   170  0094                     	;# 
   171  0098                     	;# 
   172  0099                     	;# 
   173  009B                     	;# 
   174  009C                     	;# 
   175  009D                     	;# 
   176  009E                     	;# 
   177  009F                     	;# 
   178  0105                     	;# 
   179  010C                     	;# 
   180  010D                     	;# 
   181  010E                     	;# 
   182  010F                     	;# 
   183  018C                     	;# 
   184  018D                     	;# 
   185                           
   186                           	psect	idataBANK0
   187  0531                     __pidataBANK0:	
   188                           
   189                           ;initializer for _rowaddr
   190  0531  3400               	retlw	0
   191  0532  3440               	retlw	64
   192  0533  3414               	retlw	20
   193  0534  3454               	retlw	84
   194                           
   195                           ;initializer for _lcdcolumns
   196  0535  3410               	retlw	16
   197                           
   198                           ;initializer for _lcdrows
   199  0536  3402               	retlw	2
   200                           
   201                           	psect	strings
   202  0002                     __pstrings:	
   203  0002                     stringtab:	
   204  0002                     __stringtab:	
   205  0002                     stringcode:	
   206                           ;	String table - string pointers are 1 byte each
   207                           
   208  0002                     stringdir:	
   209  0002  3000               	movlw	high stringdir
   210  0003  008A               	movwf	10
   211  0004  0804               	movf	4,w
   212  0005  0A84               	incf	4,f
   213  0006  0782               	addwf	2,f
   214  0007                     __stringbase:	
   215  0007  3400               	retlw	0
   216  0008                     __end_of__stringtab:	
   217  0008                     _arrowd:	
   218  0008  3404               	retlw	4
   219  0009  3404               	retlw	4
   220  000A  3404               	retlw	4
   221  000B  3404               	retlw	4
   222  000C  3415               	retlw	21
   223  000D  340E               	retlw	14
   224  000E  3404               	retlw	4
   225  000F  3400               	retlw	0
   226  0010                     __end_of_arrowd:	
   227  0010                     _arrowl:	
   228  0010  3402               	retlw	2
   229  0011  3404               	retlw	4
   230  0012  3408               	retlw	8
   231  0013  341F               	retlw	31
   232  0014  3408               	retlw	8
   233  0015  3404               	retlw	4
   234  0016  3402               	retlw	2
   235  0017  3400               	retlw	0
   236  0018                     __end_of_arrowl:	
   237  0018                     _arrowr:	
   238  0018  3408               	retlw	8
   239  0019  3404               	retlw	4
   240  001A  3402               	retlw	2
   241  001B  341F               	retlw	31
   242  001C  3402               	retlw	2
   243  001D  3404               	retlw	4
   244  001E  3408               	retlw	8
   245  001F  3400               	retlw	0
   246  0020                     __end_of_arrowr:	
   247  0020                     _arrowu:	
   248  0020  3404               	retlw	4
   249  0021  340E               	retlw	14
   250  0022  3415               	retlw	21
   251  0023  3404               	retlw	4
   252  0024  3404               	retlw	4
   253  0025  3404               	retlw	4
   254  0026  3404               	retlw	4
   255  0027  3400               	retlw	0
   256  0028                     __end_of_arrowu:	
   257  0028                     __stringdata:	
   258  0028                     STR_1:	
   259  0028  344C               	retlw	76	;'L'
   260  0029  3443               	retlw	67	;'C'
   261  002A  3444               	retlw	68	;'D'
   262  002B  3420               	retlw	32	;' '
   263  002C  3454               	retlw	84	;'T'
   264  002D  3465               	retlw	101	;'e'
   265  002E  3473               	retlw	115	;'s'
   266  002F  3474               	retlw	116	;'t'
   267  0030  3420               	retlw	32	;' '
   268  0031  3450               	retlw	80	;'P'
   269  0032  3472               	retlw	114	;'r'
   270  0033  346F               	retlw	111	;'o'
   271  0034  3467               	retlw	103	;'g'
   272  0035  3472               	retlw	114	;'r'
   273  0036  3461               	retlw	97	;'a'
   274  0037  346D               	retlw	109	;'m'
   275  0038  3400               	retlw	0
   276  0039                     STR_2:	
   277  0039  3448               	retlw	72	;'H'
   278  003A  3465               	retlw	101	;'e'
   279  003B  346C               	retlw	108	;'l'
   280  003C  346C               	retlw	108	;'l'
   281  003D  346F               	retlw	111	;'o'
   282  003E  3420               	retlw	32	;' '
   283  003F  3457               	retlw	87	;'W'
   284  0040  346F               	retlw	111	;'o'
   285  0041  3472               	retlw	114	;'r'
   286  0042  346C               	retlw	108	;'l'
   287  0043  3464               	retlw	100	;'d'
   288  0044  3400               	retlw	0
   289  0045                     __end_of__stringdata:	
   290                           
   291                           ; #config settings
   292  0000                     
   293                           	psect	nvBANK0
   294  002B                     __pnvBANK0:	
   295  002B                     _iomode:	
   296  002B                     	ds	1
   297  0005                     _PORTAbits	set	5
   298  0006                     _PORTBbits	set	6
   299  009B                     _ANSEL	set	155
   300  0085                     _TRISA	set	133
   301  0086                     _TRISB	set	134
   302  0086                     _TRISBbits	set	134
   303                           
   304                           	psect	cinit
   305  07E5                     start_initialization:	
   306  07E5                     __initialization:	
   307                           
   308                           ; Clear objects allocated to BANK0
   309  07E5  01AC               	clrf	__pbssBANK0& (0+127)
   310                           
   311                           ; Initialize objects allocated to BANK0
   312  07E6  118A  2531  118A   	fcall	__pidataBANK0	;fetch initializer
   313  07E9  00A0               	movwf	__pdataBANK0& (0+127)
   314  07EA  118A  2532  118A   	fcall	__pidataBANK0+1	;fetch initializer
   315  07ED  00A1               	movwf	(__pdataBANK0+1)& (0+127)
   316  07EE  118A  2533  118A   	fcall	__pidataBANK0+2	;fetch initializer
   317  07F1  00A2               	movwf	(__pdataBANK0+2)& (0+127)
   318  07F2  118A  2534  118A   	fcall	__pidataBANK0+3	;fetch initializer
   319  07F5  00A3               	movwf	(__pdataBANK0+3)& (0+127)
   320  07F6  118A  2535  118A   	fcall	__pidataBANK0+4	;fetch initializer
   321  07F9  00A4               	movwf	(__pdataBANK0+4)& (0+127)
   322  07FA  118A  2536         	fcall	__pidataBANK0+5	;fetch initializer
   323  07FC  00A5               	movwf	(__pdataBANK0+5)& (0+127)
   324  07FD                     end_of_initialization:	
   325                           ;End of C runtime variable initialization code
   326                           
   327  07FD                     __end_of__initialization:	
   328  07FD  0183               	clrf	3
   329  07FE  118A  2E9D         	ljmp	_main	;jump to C main() function
   330                           
   331                           	psect	bssBANK0
   332  002C                     __pbssBANK0:	
   333  002C                     _dispctrl:	
   334  002C                     	ds	1
   335                           
   336                           	psect	dataBANK0
   337  0020                     __pdataBANK0:	
   338  0020                     _rowaddr:	
   339  0020                     	ds	4
   340  0024                     _lcdcolumns:	
   341  0024                     	ds	1
   342  0025                     _lcdrows:	
   343  0025                     	ds	1
   344                           
   345                           	psect	cstackCOMMON
   346  0070                     __pcstackCOMMON:	
   347  0070                     ?_lcd_clear:	
   348  0070                     ?_lcd_on:	
   349                           ; 0 bytes @ 0x0
   350                           
   351  0070                     ?_lcd_puts:	
   352                           ; 0 bytes @ 0x0
   353                           
   354  0070                     ?_lcd_iowrite4:	
   355                           ; 0 bytes @ 0x0
   356                           
   357  0070                     ?_lcd_ioset:	
   358                           ; 0 bytes @ 0x0
   359                           
   360  0070                     ?_lcd_iowrite8:	
   361                           ; 0 bytes @ 0x0
   362                           
   363  0070                     ?_main:	
   364                           ; 0 bytes @ 0x0
   365                           
   366  0070                     ?_lcd_ioinit:	
   367                           ; 0 bytes @ 0x0
   368                           
   369  0070                     lcd_ioinit@iodata:	
   370                           ; 1 bytes @ 0x0
   371                           
   372  0070                     lcd_ioset@level:	
   373                           ; 1 bytes @ 0x0
   374                           
   375                           
   376                           ; 1 bytes @ 0x0
   377  0070                     	ds	1
   378  0071                     ??_lcd_ioset:	
   379  0071                     lcd_ioset@pin:	
   380                           ; 0 bytes @ 0x1
   381                           
   382                           
   383                           ; 1 bytes @ 0x1
   384  0071                     	ds	1
   385  0072                     ??_lcd_ioinit:	
   386  0072                     ??_lcd_iowrite4:	
   387                           ; 0 bytes @ 0x2
   388                           
   389  0072                     ??_lcd_iowrite8:	
   390                           ; 0 bytes @ 0x2
   391                           
   392                           
   393                           ; 0 bytes @ 0x2
   394  0072                     	ds	1
   395  0073                     lcd_ioinit@i:	
   396                           
   397                           ; 1 bytes @ 0x3
   398  0073                     	ds	1
   399  0074                     lcd_iowrite4@data:	
   400  0074                     lcd_iowrite8@data:	
   401                           ; 1 bytes @ 0x4
   402                           
   403                           
   404                           ; 1 bytes @ 0x4
   405  0074                     	ds	1
   406  0075                     lcd_iowrite4@i:	
   407  0075                     lcd_iowrite8@i:	
   408                           ; 1 bytes @ 0x5
   409                           
   410                           
   411                           ; 1 bytes @ 0x5
   412  0075                     	ds	1
   413  0076                     ?_lcd_send:	
   414  0076                     lcd_send@rs:	
   415                           ; 0 bytes @ 0x6
   416                           
   417                           
   418                           ; 1 bytes @ 0x6
   419  0076                     	ds	1
   420  0077                     ??_lcd_send:	
   421                           
   422                           ; 0 bytes @ 0x7
   423  0077                     	ds	1
   424  0078                     lcd_send@data:	
   425                           
   426                           ; 1 bytes @ 0x8
   427  0078                     	ds	1
   428  0079                     ?_lcd_create_char:	
   429  0079                     ??_lcd_clear:	
   430                           ; 0 bytes @ 0x9
   431                           
   432  0079                     ??_lcd_on:	
   433                           ; 0 bytes @ 0x9
   434                           
   435  0079                     ??_lcd_puts:	
   436                           ; 0 bytes @ 0x9
   437                           
   438  0079                     ?_lcd_goto:	
   439                           ; 0 bytes @ 0x9
   440                           
   441  0079                     ?_lcd_init:	
   442                           ; 0 bytes @ 0x9
   443                           
   444  0079                     lcd_init@cols:	
   445                           ; 1 bytes @ 0x9
   446                           
   447  0079                     lcd_goto@row:	
   448                           ; 1 bytes @ 0x9
   449                           
   450  0079                     lcd_create_char@chardata:	
   451                           ; 1 bytes @ 0x9
   452                           
   453                           
   454                           ; 1 bytes @ 0x9
   455  0079                     	ds	1
   456  007A                     ??_lcd_create_char:	
   457  007A                     ??_lcd_goto:	
   458                           ; 0 bytes @ 0xA
   459                           
   460  007A                     lcd_init@rows:	
   461                           ; 0 bytes @ 0xA
   462                           
   463  007A                     lcd_puts@string:	
   464                           ; 1 bytes @ 0xA
   465                           
   466                           
   467                           ; 1 bytes @ 0xA
   468  007A                     	ds	1
   469  007B                     ??_lcd_init:	
   470  007B                     lcd_goto@col:	
   471                           ; 0 bytes @ 0xB
   472                           
   473  007B                     lcd_create_char@charnum:	
   474                           ; 1 bytes @ 0xB
   475                           
   476                           
   477                           ; 1 bytes @ 0xB
   478  007B                     	ds	1
   479  007C                     lcd_create_char@i:	
   480                           
   481                           ; 1 bytes @ 0xC
   482  007C                     	ds	1
   483  007D                     lcd_init@iodata:	
   484                           
   485                           ; 1 bytes @ 0xD
   486  007D                     	ds	1
   487                           
   488                           	psect	cstackBANK0
   489  0026                     __pcstackBANK0:	
   490  0026                     ??_main:	
   491                           
   492                           ; 0 bytes @ 0x0
   493  0026                     	ds	3
   494  0029                     main@i:	
   495                           
   496                           ; 2 bytes @ 0x3
   497  0029                     	ds	2
   498                           
   499                           	psect	maintext
   500  069D                     __pmaintext:	
   501 ;;
   502 ;;Main: autosize = 0, tempsize = 3, incstack = 0, save=0
   503 ;;
   504 ;; *************** function _main *****************
   505 ;; Defined at:
   506 ;;		line 81 in file "main.c"
   507 ;; Parameters:    Size  Location     Type
   508 ;;		None
   509 ;; Auto vars:     Size  Location     Type
   510 ;;  i               2    3[BANK0 ] int 
   511 ;; Return value:  Size  Location     Type
   512 ;;		None               void
   513 ;; Registers used:
   514 ;;		wreg, fsr0l, fsr0h, status,2, status,0, btemp+1, pclath, cstack
   515 ;; Tracked objects:
   516 ;;		On entry : 17F/0
   517 ;;		On exit  : 0/0
   518 ;;		Unchanged: 0/0
   519 ;; Data sizes:     COMMON   BANK0   BANK1   BANK3   BANK2
   520 ;;      Params:         0       0       0       0       0
   521 ;;      Locals:         0       2       0       0       0
   522 ;;      Temps:          0       3       0       0       0
   523 ;;      Totals:         0       5       0       0       0
   524 ;;Total ram usage:        5 bytes
   525 ;; Hardware stack levels required when called:    4
   526 ;; This function calls:
   527 ;;		_lcd_init
   528 ;;		_lcd_create_char
   529 ;;		_lcd_clear
   530 ;;		_lcd_on
   531 ;;		_lcd_puts
   532 ;;		_lcd_goto
   533 ;;		_lcd_send
   534 ;; This function is called by:
   535 ;;		Startup code after reset
   536 ;; This function uses a non-reentrant model
   537 ;;
   538                           
   539                           
   540                           ;psect for function _main
   541  069D                     _main:	
   542                           
   543                           ;main.c: 82: int i;
   544                           ;main.c: 84: ANSEL = 0x00;
   545                           
   546                           ;incstack = 0
   547                           ; Regs used in _main: [wreg-fsr0h+status,2+status,0+btemp+1+pclath+cstack]
   548  069D  1683               	bsf	3,5	;RP0=1, select bank1
   549  069E  1303               	bcf	3,6	;RP1=0, select bank1
   550  069F  019B               	clrf	27	;volatile
   551                           
   552                           ;main.c: 85: TRISA = 0xFE;
   553  06A0  30FE               	movlw	254
   554  06A1  0085               	movwf	5	;volatile
   555                           
   556                           ;main.c: 86: TRISB = 0x7F;
   557  06A2  307F               	movlw	127
   558  06A3  0086               	movwf	6	;volatile
   559                           
   560                           ;main.c: 89: lcd_init( 0, 16, 2 );
   561  06A4  3010               	movlw	16
   562  06A5  1283               	bcf	3,5	;RP0=0, select bank0
   563  06A6  1303               	bcf	3,6	;RP1=0, select bank0
   564  06A7  00A6               	movwf	??_main
   565  06A8  0826               	movf	??_main,w
   566  06A9  00F9               	movwf	?_lcd_init
   567  06AA  3002               	movlw	2
   568  06AB  00A7               	movwf	??_main+1
   569  06AC  0827               	movf	??_main+1,w
   570  06AD  00FA               	movwf	?_lcd_init+1
   571  06AE  3000               	movlw	0
   572  06AF  118A  273E  118A   	fcall	_lcd_init
   573                           
   574                           ;main.c: 92: lcd_create_char( 0, arrowr );
   575  06B2  3011               	movlw	(_arrowr-__stringbase)& (0+255)
   576  06B3  1283               	bcf	3,5	;RP0=0, select bank0
   577  06B4  1303               	bcf	3,6	;RP1=0, select bank0
   578  06B5  00A6               	movwf	??_main
   579  06B6  0826               	movf	??_main,w
   580  06B7  00F9               	movwf	?_lcd_create_char
   581  06B8  3000               	movlw	0
   582  06B9  118A  25A7  118A   	fcall	_lcd_create_char
   583                           
   584                           ;main.c: 93: lcd_create_char( 1, arrowu );
   585  06BC  3019               	movlw	(_arrowu-__stringbase)& (0+255)
   586  06BD  1283               	bcf	3,5	;RP0=0, select bank0
   587  06BE  1303               	bcf	3,6	;RP1=0, select bank0
   588  06BF  00A6               	movwf	??_main
   589  06C0  0826               	movf	??_main,w
   590  06C1  00F9               	movwf	?_lcd_create_char
   591  06C2  3001               	movlw	1
   592  06C3  118A  25A7  118A   	fcall	_lcd_create_char
   593                           
   594                           ;main.c: 94: lcd_create_char( 2, arrowl );
   595  06C6  3009               	movlw	(_arrowl-__stringbase)& (0+255)
   596  06C7  1283               	bcf	3,5	;RP0=0, select bank0
   597  06C8  1303               	bcf	3,6	;RP1=0, select bank0
   598  06C9  00A6               	movwf	??_main
   599  06CA  0826               	movf	??_main,w
   600  06CB  00F9               	movwf	?_lcd_create_char
   601  06CC  3002               	movlw	2
   602  06CD  118A  25A7  118A   	fcall	_lcd_create_char
   603                           
   604                           ;main.c: 95: lcd_create_char( 3, arrowd );
   605  06D0  3001               	movlw	(_arrowd-__stringbase)& (0+255)
   606  06D1  1283               	bcf	3,5	;RP0=0, select bank0
   607  06D2  1303               	bcf	3,6	;RP1=0, select bank0
   608  06D3  00A6               	movwf	??_main
   609  06D4  0826               	movf	??_main,w
   610  06D5  00F9               	movwf	?_lcd_create_char
   611  06D6  3003               	movlw	3
   612  06D7  118A  25A7  118A   	fcall	_lcd_create_char
   613                           
   614                           ;main.c: 98: lcd_clear( );
   615  06DA  118A  2537  118A   	fcall	_lcd_clear
   616                           
   617                           ;main.c: 100: lcd_on( );
   618  06DD  118A  2546  118A   	fcall	_lcd_on
   619                           
   620                           ;main.c: 102: lcd_puts( "LCD Test Program" );
   621  06E0  3021               	movlw	(STR_1-__stringbase)& (0+255)
   622  06E1  118A  2555  118A   	fcall	_lcd_puts
   623                           
   624                           ;main.c: 104: lcd_goto( 3, 1 );
   625  06E4  01F9               	clrf	?_lcd_goto
   626  06E5  0AF9               	incf	?_lcd_goto,f
   627  06E6  3003               	movlw	3
   628  06E7  118A  2587  118A   	fcall	_lcd_goto
   629                           
   630                           ;main.c: 106: lcd_puts( "Hello World" );
   631  06EA  3032               	movlw	(STR_2-__stringbase)& (0+255)
   632  06EB  118A  2555  118A   	fcall	_lcd_puts
   633                           
   634                           ;main.c: 108: lcd_goto( 15, 1 );
   635  06EE  01F9               	clrf	?_lcd_goto
   636  06EF  0AF9               	incf	?_lcd_goto,f
   637  06F0  300F               	movlw	15
   638  06F1  118A  2587  118A   	fcall	_lcd_goto
   639  06F4                     l1139:	
   640                           ;main.c: 111: for(;; ) {
   641                           
   642                           
   643                           ;main.c: 112: for( i = 0; i < 4; i++ ) {
   644  06F4  1283               	bcf	3,5	;RP0=0, select bank0
   645  06F5  1303               	bcf	3,6	;RP1=0, select bank0
   646  06F6  01A9               	clrf	main@i
   647  06F7  01AA               	clrf	main@i+1
   648  06F8                     L1:	
   649  06F8  082A               	movf	main@i+1,w
   650  06F9  3A80               	xorlw	128
   651  06FA  00FF               	movwf	127
   652  06FB  3080               	movlw	128
   653  06FC  027F               	subwf	127,w
   654  06FD  1D03               	skipz
   655  06FE  2F01               	goto	u415
   656  06FF  3004               	movlw	4
   657  0700  0229               	subwf	main@i,w
   658  0701                     u415:	
   659  0701  1803               	btfsc	3,0
   660  0702  2EF4               	goto	l1139
   661                           
   662                           ;main.c: 113: _delay((unsigned long)((250)*(1000000/1000.0)));
   663  0703  3002               	movlw	2
   664  0704  1283               	bcf	3,5	;RP0=0, select bank0
   665  0705  1303               	bcf	3,6	;RP1=0, select bank0
   666  0706  00A8               	movwf	??_main+2
   667  0707  3045               	movlw	69
   668  0708  00A7               	movwf	??_main+1
   669  0709  30A9               	movlw	169
   670  070A  00A6               	movwf	??_main
   671  070B                     u437:	
   672  070B  0BA6               	decfsz	??_main,f
   673  070C  2F0B               	goto	u437
   674  070D  0BA7               	decfsz	??_main+1,f
   675  070E  2F0B               	goto	u437
   676  070F  0BA8               	decfsz	??_main+2,f
   677  0710  2F0B               	goto	u437
   678  0711  2F12               	nop2
   679                           
   680                           ;main.c: 114: PORTBbits.RB7 = 0;
   681  0712  1283               	bcf	3,5	;RP0=0, select bank0
   682  0713  1303               	bcf	3,6	;RP1=0, select bank0
   683  0714  1386               	bcf	6,7	;volatile
   684                           
   685                           ;main.c: 115: _delay((unsigned long)((250)*(1000000/1000.0)));
   686  0715  3002               	movlw	2
   687  0716  00A8               	movwf	??_main+2
   688  0717  3045               	movlw	69
   689  0718  00A7               	movwf	??_main+1
   690  0719  30A9               	movlw	169
   691  071A  00A6               	movwf	??_main
   692  071B                     u447:	
   693  071B  0BA6               	decfsz	??_main,f
   694  071C  2F1B               	goto	u447
   695  071D  0BA7               	decfsz	??_main+1,f
   696  071E  2F1B               	goto	u447
   697  071F  0BA8               	decfsz	??_main+2,f
   698  0720  2F1B               	goto	u447
   699  0721  2F22               	nop2
   700                           
   701                           ;main.c: 116: PORTBbits.RB7 = 1;
   702  0722  1283               	bcf	3,5	;RP0=0, select bank0
   703  0723  1303               	bcf	3,6	;RP1=0, select bank0
   704  0724  1786               	bsf	6,7	;volatile
   705                           
   706                           ;main.c: 117: lcd_send( i, TRUE );
   707  0725  01F6               	clrf	?_lcd_send
   708  0726  0AF6               	incf	?_lcd_send,f
   709  0727  0829               	movf	main@i,w
   710  0728  118A  25D0  118A   	fcall	_lcd_send
   711                           
   712                           ;main.c: 119: lcd_goto( 50, 50 );
   713  072B  3032               	movlw	50
   714  072C  1283               	bcf	3,5	;RP0=0, select bank0
   715  072D  1303               	bcf	3,6	;RP1=0, select bank0
   716  072E  00A6               	movwf	??_main
   717  072F  0826               	movf	??_main,w
   718  0730  00F9               	movwf	?_lcd_goto
   719  0731  3032               	movlw	50
   720  0732  118A  2587  118A   	fcall	_lcd_goto
   721  0735  3001               	movlw	1
   722  0736  1283               	bcf	3,5	;RP0=0, select bank0
   723  0737  1303               	bcf	3,6	;RP1=0, select bank0
   724  0738  07A9               	addwf	main@i,f
   725  0739  1803               	skipnc
   726  073A  0AAA               	incf	main@i+1,f
   727  073B  3000               	movlw	0
   728  073C  07AA               	addwf	main@i+1,f
   729  073D  2EF8               	goto	L1
   730  073E                     __end_of_main:	
   731                           ;main.c: 120: }
   732                           ;main.c: 121: }
   733                           
   734                           
   735                           	psect	text1
   736  0587                     __ptext1:	
   737 ;; *************** function _lcd_goto *****************
   738 ;; Defined at:
   739 ;;		line 133 in file "../LCD.c"
   740 ;; Parameters:    Size  Location     Type
   741 ;;  col             1    wreg     unsigned char 
   742 ;;  row             1    9[COMMON] unsigned char 
   743 ;; Auto vars:     Size  Location     Type
   744 ;;  col             1   11[COMMON] unsigned char 
   745 ;; Return value:  Size  Location     Type
   746 ;;		None               void
   747 ;; Registers used:
   748 ;;		wreg, fsr0l, fsr0h, status,2, status,0, pclath, cstack
   749 ;; Tracked objects:
   750 ;;		On entry : 0/0
   751 ;;		On exit  : 0/0
   752 ;;		Unchanged: 0/0
   753 ;; Data sizes:     COMMON   BANK0   BANK1   BANK3   BANK2
   754 ;;      Params:         1       0       0       0       0
   755 ;;      Locals:         1       0       0       0       0
   756 ;;      Temps:          1       0       0       0       0
   757 ;;      Totals:         3       0       0       0       0
   758 ;;Total ram usage:        3 bytes
   759 ;; Hardware stack levels used:    1
   760 ;; Hardware stack levels required when called:    3
   761 ;; This function calls:
   762 ;;		_lcd_send
   763 ;; This function is called by:
   764 ;;		_main
   765 ;; This function uses a non-reentrant model
   766 ;;
   767                           
   768                           
   769                           ;psect for function _lcd_goto
   770  0587                     _lcd_goto:	
   771                           
   772                           ;incstack = 0
   773                           ; Regs used in _lcd_goto: [wreg-fsr0h+status,2+status,0+pclath+cstack]
   774                           ;lcd_goto@col stored from wreg
   775  0587  00FB               	movwf	lcd_goto@col
   776                           
   777                           ;LCD.c: 135: if (row >= lcdrows)
   778  0588  1283               	bcf	3,5	;RP0=0, select bank0
   779  0589  1303               	bcf	3,6	;RP1=0, select bank0
   780  058A  0825               	movf	_lcdrows,w
   781  058B  0279               	subwf	lcd_goto@row,w
   782  058C  1C03               	skipc
   783  058D  2D93               	goto	l1105
   784                           
   785                           ;LCD.c: 136: row = lcdrows - 1;
   786  058E  0825               	movf	_lcdrows,w
   787  058F  3EFF               	addlw	255
   788  0590  00FA               	movwf	??_lcd_goto
   789  0591  087A               	movf	??_lcd_goto,w
   790  0592  00F9               	movwf	lcd_goto@row
   791  0593                     l1105:	
   792                           
   793                           ;LCD.c: 137: if (col >= lcdcolumns)
   794  0593  0824               	movf	_lcdcolumns,w
   795  0594  027B               	subwf	lcd_goto@col,w
   796  0595  1C03               	skipc
   797  0596  2D9C               	goto	l1109
   798                           
   799                           ;LCD.c: 138: col = lcdcolumns - 1;
   800  0597  0824               	movf	_lcdcolumns,w
   801  0598  3EFF               	addlw	255
   802  0599  00FA               	movwf	??_lcd_goto
   803  059A  087A               	movf	??_lcd_goto,w
   804  059B  00FB               	movwf	lcd_goto@col
   805  059C                     l1109:	
   806                           
   807                           ;LCD.c: 140: lcd_send( E_SET_DDRAM_ADDR | (col + rowaddr[ row ]), FALSE );
   808  059C  01F6               	clrf	?_lcd_send
   809  059D  0879               	movf	lcd_goto@row,w
   810  059E  3E20               	addlw	_rowaddr& (0+255)
   811  059F  0084               	movwf	4
   812  05A0  087B               	movf	lcd_goto@col,w
   813  05A1  1383               	bcf	3,7	;select IRP bank0
   814  05A2  0700               	addwf	0,w
   815  05A3  3880               	iorlw	128
   816  05A4  118A  25D0         	fcall	_lcd_send
   817  05A6  0008               	return
   818  05A7                     __end_of_lcd_goto:	
   819                           
   820                           	psect	text2
   821  0555                     __ptext2:	
   822 ;; *************** function _lcd_puts *****************
   823 ;; Defined at:
   824 ;;		line 162 in file "../LCD.c"
   825 ;; Parameters:    Size  Location     Type
   826 ;;  string          1    wreg     PTR const unsigned char 
   827 ;;		 -> STR_2(12), STR_1(17), 
   828 ;; Auto vars:     Size  Location     Type
   829 ;;  string          1   10[COMMON] PTR const unsigned char 
   830 ;;		 -> STR_2(12), STR_1(17), 
   831 ;; Return value:  Size  Location     Type
   832 ;;		None               void
   833 ;; Registers used:
   834 ;;		wreg, fsr0l, fsr0h, status,2, status,0, pclath, cstack
   835 ;; Tracked objects:
   836 ;;		On entry : 0/0
   837 ;;		On exit  : 0/0
   838 ;;		Unchanged: 0/0
   839 ;; Data sizes:     COMMON   BANK0   BANK1   BANK3   BANK2
   840 ;;      Params:         0       0       0       0       0
   841 ;;      Locals:         1       0       0       0       0
   842 ;;      Temps:          1       0       0       0       0
   843 ;;      Totals:         2       0       0       0       0
   844 ;;Total ram usage:        2 bytes
   845 ;; Hardware stack levels used:    1
   846 ;; Hardware stack levels required when called:    3
   847 ;; This function calls:
   848 ;;		_lcd_send
   849 ;; This function is called by:
   850 ;;		_main
   851 ;; This function uses a non-reentrant model
   852 ;;
   853                           
   854                           
   855                           ;psect for function _lcd_puts
   856  0555                     _lcd_puts:	
   857                           
   858                           ;incstack = 0
   859                           ; Regs used in _lcd_puts: [wreg-fsr0h+status,2+status,0+pclath+cstack]
   860                           ;lcd_puts@string stored from wreg
   861  0555  00FA               	movwf	lcd_puts@string
   862  0556                     l1099:	
   863                           ;LCD.c: 163: while (*string != '\0')
   864                           
   865  0556  087A               	movf	lcd_puts@string,w
   866  0557  0084               	movwf	4
   867  0558  118A  2002  118A   	fcall	stringdir
   868  055B  3800               	iorlw	0
   869  055C  1903               	btfsc	3,2
   870  055D  0008               	return
   871                           
   872                           ;LCD.c: 164: lcd_send( *string++, TRUE );
   873  055E  01F6               	clrf	?_lcd_send
   874  055F  0AF6               	incf	?_lcd_send,f
   875  0560  087A               	movf	lcd_puts@string,w
   876  0561  0084               	movwf	4
   877  0562  118A  2002  118A   	fcall	stringdir
   878  0565  118A  25D0  118A   	fcall	_lcd_send
   879  0568  3001               	movlw	1
   880  0569  00F9               	movwf	??_lcd_puts
   881  056A  0879               	movf	??_lcd_puts,w
   882  056B  07FA               	addwf	lcd_puts@string,f
   883  056C  2D56               	goto	l1099
   884  056D                     __end_of_lcd_puts:	
   885                           
   886                           	psect	text3
   887  0546                     __ptext3:	
   888 ;; *************** function _lcd_on *****************
   889 ;; Defined at:
   890 ;;		line 87 in file "../LCD.c"
   891 ;; Parameters:    Size  Location     Type
   892 ;;		None
   893 ;; Auto vars:     Size  Location     Type
   894 ;;		None
   895 ;; Return value:  Size  Location     Type
   896 ;;		None               void
   897 ;; Registers used:
   898 ;;		wreg, fsr0l, fsr0h, status,2, status,0, pclath, cstack
   899 ;; Tracked objects:
   900 ;;		On entry : 0/0
   901 ;;		On exit  : 0/0
   902 ;;		Unchanged: 0/0
   903 ;; Data sizes:     COMMON   BANK0   BANK1   BANK3   BANK2
   904 ;;      Params:         0       0       0       0       0
   905 ;;      Locals:         0       0       0       0       0
   906 ;;      Temps:          1       0       0       0       0
   907 ;;      Totals:         1       0       0       0       0
   908 ;;Total ram usage:        1 bytes
   909 ;; Hardware stack levels used:    1
   910 ;; Hardware stack levels required when called:    3
   911 ;; This function calls:
   912 ;;		_lcd_send
   913 ;; This function is called by:
   914 ;;		_main
   915 ;; This function uses a non-reentrant model
   916 ;;
   917                           
   918                           
   919                           ;psect for function _lcd_on
   920  0546                     _lcd_on:	
   921                           
   922                           ;LCD.c: 88: dispctrl |= (1<<2);
   923                           
   924                           ;incstack = 0
   925                           ; Regs used in _lcd_on: [wreg-fsr0h+status,2+status,0+pclath+cstack]
   926  0546  1283               	bcf	3,5	;RP0=0, select bank0
   927  0547  1303               	bcf	3,6	;RP1=0, select bank0
   928  0548  152C               	bsf	_dispctrl,2
   929                           
   930                           ;LCD.c: 89: lcd_send( E_DISPLAY_ON_OFF_CTRL | dispctrl, FALSE );
   931  0549  01F6               	clrf	?_lcd_send
   932  054A  082C               	movf	_dispctrl,w
   933  054B  3808               	iorlw	8
   934  054C  118A  25D0  118A   	fcall	_lcd_send
   935                           
   936                           ;LCD.c: 90: _delay((unsigned long)((50)*(1000000/1000000.0)));
   937  054F  3010               	movlw	16
   938  0550  00F9               	movwf	??_lcd_on
   939  0551                     u457:	
   940  0551  0BF9               	decfsz	??_lcd_on,f
   941  0552  2D51               	goto	u457
   942  0553  0000               	nop
   943  0554  0008               	return
   944  0555                     __end_of_lcd_on:	
   945                           
   946                           	psect	text4
   947  0537                     __ptext4:	
   948 ;; *************** function _lcd_clear *****************
   949 ;; Defined at:
   950 ;;		line 75 in file "../LCD.c"
   951 ;; Parameters:    Size  Location     Type
   952 ;;		None
   953 ;; Auto vars:     Size  Location     Type
   954 ;;		None
   955 ;; Return value:  Size  Location     Type
   956 ;;		None               void
   957 ;; Registers used:
   958 ;;		wreg, fsr0l, fsr0h, status,2, status,0, pclath, cstack
   959 ;; Tracked objects:
   960 ;;		On entry : 0/0
   961 ;;		On exit  : 0/0
   962 ;;		Unchanged: 0/0
   963 ;; Data sizes:     COMMON   BANK0   BANK1   BANK3   BANK2
   964 ;;      Params:         0       0       0       0       0
   965 ;;      Locals:         0       0       0       0       0
   966 ;;      Temps:          2       0       0       0       0
   967 ;;      Totals:         2       0       0       0       0
   968 ;;Total ram usage:        2 bytes
   969 ;; Hardware stack levels used:    1
   970 ;; Hardware stack levels required when called:    3
   971 ;; This function calls:
   972 ;;		_lcd_send
   973 ;; This function is called by:
   974 ;;		_main
   975 ;; This function uses a non-reentrant model
   976 ;;
   977                           
   978                           
   979                           ;psect for function _lcd_clear
   980  0537                     _lcd_clear:	
   981                           
   982                           ;LCD.c: 76: lcd_send( E_CLEAR_DISPLAY, FALSE );
   983                           
   984                           ;incstack = 0
   985                           ; Regs used in _lcd_clear: [wreg-fsr0h+status,2+status,0+pclath+cstack]
   986  0537  01F6               	clrf	?_lcd_send
   987  0538  3001               	movlw	1
   988  0539  118A  25D0  118A   	fcall	_lcd_send
   989                           
   990                           ;LCD.c: 77: _delay((unsigned long)((2)*(1000000/1000.0)));
   991  053C  3003               	movlw	3
   992  053D  00FA               	movwf	??_lcd_clear+1
   993  053E  3097               	movlw	151
   994  053F  00F9               	movwf	??_lcd_clear
   995  0540                     u467:	
   996  0540  0BF9               	decfsz	??_lcd_clear,f
   997  0541  2D40               	goto	u467
   998  0542  0BFA               	decfsz	??_lcd_clear+1,f
   999  0543  2D40               	goto	u467
  1000  0544  2D45               	nop2
  1001  0545  0008               	return
  1002  0546                     __end_of_lcd_clear:	
  1003                           
  1004                           	psect	text5
  1005  05A7                     __ptext5:	
  1006 ;; *************** function _lcd_create_char *****************
  1007 ;; Defined at:
  1008 ;;		line 168 in file "../LCD.c"
  1009 ;; Parameters:    Size  Location     Type
  1010 ;;  charnum         1    wreg     unsigned char 
  1011 ;;  chardata        1    9[COMMON] PTR const unsigned char 
  1012 ;;		 -> arrowd(8), arrowl(8), arrowu(8), arrowr(8), 
  1013 ;; Auto vars:     Size  Location     Type
  1014 ;;  charnum         1   11[COMMON] unsigned char 
  1015 ;;  i               1   12[COMMON] unsigned char 
  1016 ;; Return value:  Size  Location     Type
  1017 ;;		None               void
  1018 ;; Registers used:
  1019 ;;		wreg, fsr0l, fsr0h, status,2, status,0, pclath, cstack
  1020 ;; Tracked objects:
  1021 ;;		On entry : 0/0
  1022 ;;		On exit  : 0/0
  1023 ;;		Unchanged: 0/0
  1024 ;; Data sizes:     COMMON   BANK0   BANK1   BANK3   BANK2
  1025 ;;      Params:         1       0       0       0       0
  1026 ;;      Locals:         2       0       0       0       0
  1027 ;;      Temps:          1       0       0       0       0
  1028 ;;      Totals:         4       0       0       0       0
  1029 ;;Total ram usage:        4 bytes
  1030 ;; Hardware stack levels used:    1
  1031 ;; Hardware stack levels required when called:    3
  1032 ;; This function calls:
  1033 ;;		_lcd_send
  1034 ;; This function is called by:
  1035 ;;		_main
  1036 ;; This function uses a non-reentrant model
  1037 ;;
  1038                           
  1039                           
  1040                           ;psect for function _lcd_create_char
  1041  05A7                     _lcd_create_char:	
  1042                           
  1043                           ;incstack = 0
  1044                           ; Regs used in _lcd_create_char: [wreg-fsr0h+status,2+status,0+pclath+cstack]
  1045                           ;lcd_create_char@charnum stored from wreg
  1046  05A7  00FB               	movwf	lcd_create_char@charnum
  1047                           
  1048                           ;LCD.c: 169: BYTE i;
  1049                           ;LCD.c: 170: charnum &= 0x07;
  1050  05A8  3007               	movlw	7
  1051  05A9  00FA               	movwf	??_lcd_create_char
  1052  05AA  087A               	movf	??_lcd_create_char,w
  1053  05AB  05FB               	andwf	lcd_create_char@charnum,f
  1054                           
  1055                           ;LCD.c: 171: lcd_send( E_SET_CGRAM_ADDR | (charnum << 3), FALSE );
  1056  05AC  01F6               	clrf	?_lcd_send
  1057  05AD  087B               	movf	lcd_create_char@charnum,w
  1058  05AE  00FA               	movwf	??_lcd_create_char
  1059  05AF  3002               	movlw	2
  1060  05B0                     u355:	
  1061  05B0  1003               	clrc
  1062  05B1  0DFA               	rlf	??_lcd_create_char,f
  1063  05B2  3EFF               	addlw	-1
  1064  05B3  1D03               	skipz
  1065  05B4  2DB0               	goto	u355
  1066  05B5  1003               	clrc
  1067  05B6  0D7A               	rlf	??_lcd_create_char,w
  1068  05B7  3840               	iorlw	64
  1069  05B8  118A  25D0  118A   	fcall	_lcd_send
  1070                           
  1071                           ;LCD.c: 172: for (i = 0; i < 8; i++)
  1072  05BB  01FC               	clrf	lcd_create_char@i
  1073  05BC                     L2:	
  1074  05BC  3008               	movlw	8
  1075  05BD  027C               	subwf	lcd_create_char@i,w
  1076  05BE  1803               	btfsc	3,0
  1077  05BF  0008               	return
  1078                           
  1079                           ;LCD.c: 173: lcd_send( chardata[i], TRUE );
  1080  05C0  01F6               	clrf	?_lcd_send
  1081  05C1  0AF6               	incf	?_lcd_send,f
  1082  05C2  087C               	movf	lcd_create_char@i,w
  1083  05C3  0779               	addwf	lcd_create_char@chardata,w
  1084  05C4  0084               	movwf	4
  1085  05C5  118A  2002  118A   	fcall	stringdir
  1086  05C8  118A  25D0  118A   	fcall	_lcd_send
  1087  05CB  3001               	movlw	1
  1088  05CC  00FA               	movwf	??_lcd_create_char
  1089  05CD  087A               	movf	??_lcd_create_char,w
  1090  05CE  07FC               	addwf	lcd_create_char@i,f
  1091  05CF  2DBC               	goto	L2
  1092  05D0                     __end_of_lcd_create_char:	
  1093                           
  1094                           	psect	text6
  1095  073E                     __ptext6:	
  1096 ;; *************** function _lcd_init *****************
  1097 ;; Defined at:
  1098 ;;		line 29 in file "../LCD.c"
  1099 ;; Parameters:    Size  Location     Type
  1100 ;;  iodata          1    wreg     PTR void 
  1101 ;;		 -> NULL(0), 
  1102 ;;  cols            1    9[COMMON] unsigned char 
  1103 ;;  rows            1   10[COMMON] unsigned char 
  1104 ;; Auto vars:     Size  Location     Type
  1105 ;;  iodata          1   13[COMMON] PTR void 
  1106 ;;		 -> NULL(0), 
  1107 ;; Return value:  Size  Location     Type
  1108 ;;                  1    wreg      enum E971
  1109 ;; Registers used:
  1110 ;;		wreg, fsr0l, fsr0h, status,2, status,0, pclath, cstack
  1111 ;; Tracked objects:
  1112 ;;		On entry : 0/0
  1113 ;;		On exit  : 0/0
  1114 ;;		Unchanged: 0/0
  1115 ;; Data sizes:     COMMON   BANK0   BANK1   BANK3   BANK2
  1116 ;;      Params:         2       0       0       0       0
  1117 ;;      Locals:         1       0       0       0       0
  1118 ;;      Temps:          2       0       0       0       0
  1119 ;;      Totals:         5       0       0       0       0
  1120 ;;Total ram usage:        5 bytes
  1121 ;; Hardware stack levels used:    1
  1122 ;; Hardware stack levels required when called:    3
  1123 ;; This function calls:
  1124 ;;		_lcd_send
  1125 ;;		_lcd_ioinit
  1126 ;;		_lcd_iowrite4
  1127 ;; This function is called by:
  1128 ;;		_main
  1129 ;; This function uses a non-reentrant model
  1130 ;;
  1131                           
  1132                           
  1133                           ;psect for function _lcd_init
  1134  073E                     _lcd_init:	
  1135                           
  1136                           ;incstack = 0
  1137                           ; Regs used in _lcd_init: [wreg-fsr0h+status,2+status,0+pclath+cstack]
  1138                           ;lcd_init@iodata stored from wreg
  1139  073E  00FD               	movwf	lcd_init@iodata
  1140                           
  1141                           ;LCD.c: 31: iomode = lcd_ioinit(iodata);
  1142  073F  087D               	movf	lcd_init@iodata,w
  1143  0740  118A  256D  118A   	fcall	_lcd_ioinit
  1144  0743  00FB               	movwf	??_lcd_init
  1145  0744  087B               	movf	??_lcd_init,w
  1146  0745  1283               	bcf	3,5	;RP0=0, select bank0
  1147  0746  1303               	bcf	3,6	;RP1=0, select bank0
  1148  0747  00AB               	movwf	_iomode
  1149                           
  1150                           ;LCD.c: 32: lcdrows = rows;
  1151  0748  087A               	movf	lcd_init@rows,w
  1152  0749  00FB               	movwf	??_lcd_init
  1153  074A  087B               	movf	??_lcd_init,w
  1154  074B  00A5               	movwf	_lcdrows
  1155                           
  1156                           ;LCD.c: 33: lcdcolumns = cols;
  1157  074C  0879               	movf	lcd_init@cols,w
  1158  074D  00FB               	movwf	??_lcd_init
  1159  074E  087B               	movf	??_lcd_init,w
  1160  074F  00A4               	movwf	_lcdcolumns
  1161                           
  1162                           ;LCD.c: 36: _delay((unsigned long)((100)*(1000000/1000.0)));
  1163  0750  3082               	movlw	130
  1164  0751  00FC               	movwf	??_lcd_init+1
  1165  0752  30DD               	movlw	221
  1166  0753  00FB               	movwf	??_lcd_init
  1167  0754                     u477:	
  1168  0754  0BFB               	decfsz	??_lcd_init,f
  1169  0755  2F54               	goto	u477
  1170  0756  0BFC               	decfsz	??_lcd_init+1,f
  1171  0757  2F54               	goto	u477
  1172  0758  2F59               	nop2
  1173                           
  1174                           ;LCD.c: 39: if (iomode == 4) {
  1175  0759  1283               	bcf	3,5	;RP0=0, select bank0
  1176  075A  1303               	bcf	3,6	;RP1=0, select bank0
  1177  075B  082B               	movf	_iomode,w
  1178  075C  3A04               	xorlw	4
  1179  075D  1D03               	skipz
  1180  075E  2F91               	goto	l1043
  1181                           
  1182                           ;LCD.c: 42: lcd_iowrite4(0x03);
  1183  075F  3003               	movlw	3
  1184  0760  118A  262A  118A   	fcall	_lcd_iowrite4
  1185                           
  1186                           ;LCD.c: 43: _delay((unsigned long)((5)*(1000000/1000.0)));
  1187  0763  3007               	movlw	7
  1188  0764  00FC               	movwf	??_lcd_init+1
  1189  0765  307D               	movlw	125
  1190  0766  00FB               	movwf	??_lcd_init
  1191  0767                     u487:	
  1192  0767  0BFB               	decfsz	??_lcd_init,f
  1193  0768  2F67               	goto	u487
  1194  0769  0BFC               	decfsz	??_lcd_init+1,f
  1195  076A  2F67               	goto	u487
  1196                           
  1197                           ;LCD.c: 44: lcd_iowrite4(0x03);
  1198  076B  3003               	movlw	3
  1199  076C  118A  262A  118A   	fcall	_lcd_iowrite4
  1200                           
  1201                           ;LCD.c: 45: _delay((unsigned long)((120)*(1000000/1000000.0)));
  1202  076F  3027               	movlw	39
  1203  0770  00FB               	movwf	??_lcd_init
  1204  0771                     u497:	
  1205  0771  0BFB               	decfsz	??_lcd_init,f
  1206  0772  2F71               	goto	u497
  1207  0773  2F74               	nop2	;nop
  1208                           
  1209                           ;LCD.c: 46: lcd_iowrite4(0x03);
  1210  0774  3003               	movlw	3
  1211  0775  118A  262A  118A   	fcall	_lcd_iowrite4
  1212                           
  1213                           ;LCD.c: 47: _delay((unsigned long)((120)*(1000000/1000000.0)));
  1214  0778  3027               	movlw	39
  1215  0779  00FB               	movwf	??_lcd_init
  1216  077A                     u507:	
  1217  077A  0BFB               	decfsz	??_lcd_init,f
  1218  077B  2F7A               	goto	u507
  1219  077C  2F7D               	nop2	;nop
  1220                           
  1221                           ;LCD.c: 48: lcd_iowrite4(0x02);
  1222  077D  3002               	movlw	2
  1223  077E  118A  262A  118A   	fcall	_lcd_iowrite4
  1224                           
  1225                           ;LCD.c: 49: _delay((unsigned long)((120)*(1000000/1000000.0)));
  1226  0781  3027               	movlw	39
  1227  0782  00FB               	movwf	??_lcd_init
  1228  0783                     u517:	
  1229  0783  0BFB               	decfsz	??_lcd_init,f
  1230  0784  2F83               	goto	u517
  1231  0785  2F86               	nop2	;nop
  1232                           
  1233                           ;LCD.c: 50: lcd_send( E_FUNCTION_SET | 0 | (1<<3) | (1<<2), FALSE );
  1234  0786  01F6               	clrf	?_lcd_send
  1235  0787  302C               	movlw	44
  1236  0788  118A  25D0  118A   	fcall	_lcd_send
  1237                           
  1238                           ;LCD.c: 51: _delay((unsigned long)((50)*(1000000/1000000.0)));
  1239  078B  3010               	movlw	16
  1240  078C  00FB               	movwf	??_lcd_init
  1241  078D                     u527:	
  1242  078D  0BFB               	decfsz	??_lcd_init,f
  1243  078E  2F8D               	goto	u527
  1244  078F  0000               	nop
  1245                           
  1246                           ;LCD.c: 52: } else if (iomode == 8) {
  1247  0790  2FC2               	goto	l1057
  1248  0791                     l1043:	
  1249  0791  1283               	bcf	3,5	;RP0=0, select bank0
  1250  0792  1303               	bcf	3,6	;RP1=0, select bank0
  1251  0793  082B               	movf	_iomode,w
  1252  0794  3A08               	xorlw	8
  1253  0795  1D03               	skipz
  1254  0796  2FC2               	goto	l1057
  1255                           
  1256                           ;LCD.c: 54: lcd_send( E_FUNCTION_SET, FALSE );
  1257  0797  01F6               	clrf	?_lcd_send
  1258  0798  3020               	movlw	32
  1259  0799  118A  25D0  118A   	fcall	_lcd_send
  1260                           
  1261                           ;LCD.c: 55: _delay((unsigned long)((5)*(1000000/1000.0)));
  1262  079C  3007               	movlw	7
  1263  079D  00FC               	movwf	??_lcd_init+1
  1264  079E  307D               	movlw	125
  1265  079F  00FB               	movwf	??_lcd_init
  1266  07A0                     u537:	
  1267  07A0  0BFB               	decfsz	??_lcd_init,f
  1268  07A1  2FA0               	goto	u537
  1269  07A2  0BFC               	decfsz	??_lcd_init+1,f
  1270  07A3  2FA0               	goto	u537
  1271                           
  1272                           ;LCD.c: 56: lcd_send( E_FUNCTION_SET, FALSE );
  1273  07A4  01F6               	clrf	?_lcd_send
  1274  07A5  3020               	movlw	32
  1275  07A6  118A  25D0  118A   	fcall	_lcd_send
  1276                           
  1277                           ;LCD.c: 57: _delay((unsigned long)((120)*(1000000/1000000.0)));
  1278  07A9  3027               	movlw	39
  1279  07AA  00FB               	movwf	??_lcd_init
  1280  07AB                     u547:	
  1281  07AB  0BFB               	decfsz	??_lcd_init,f
  1282  07AC  2FAB               	goto	u547
  1283  07AD  2FAE               	nop2	;nop
  1284                           
  1285                           ;LCD.c: 58: lcd_send( E_FUNCTION_SET, FALSE );
  1286  07AE  01F6               	clrf	?_lcd_send
  1287  07AF  3020               	movlw	32
  1288  07B0  118A  25D0  118A   	fcall	_lcd_send
  1289                           
  1290                           ;LCD.c: 59: _delay((unsigned long)((120)*(1000000/1000000.0)));
  1291  07B3  3027               	movlw	39
  1292  07B4  00FB               	movwf	??_lcd_init
  1293  07B5                     u557:	
  1294  07B5  0BFB               	decfsz	??_lcd_init,f
  1295  07B6  2FB5               	goto	u557
  1296  07B7  2FB8               	nop2	;nop
  1297                           
  1298                           ;LCD.c: 60: lcd_send( E_FUNCTION_SET | (1<<4) | (1<<3) | (1<<2), FALSE );
  1299  07B8  01F6               	clrf	?_lcd_send
  1300  07B9  303C               	movlw	60
  1301  07BA  118A  25D0  118A   	fcall	_lcd_send
  1302                           
  1303                           ;LCD.c: 61: _delay((unsigned long)((50)*(1000000/1000000.0)));
  1304  07BD  3010               	movlw	16
  1305  07BE  00FB               	movwf	??_lcd_init
  1306  07BF                     u567:	
  1307  07BF  0BFB               	decfsz	??_lcd_init,f
  1308  07C0  2FBF               	goto	u567
  1309  07C1  0000               	nop
  1310  07C2                     l1057:	
  1311                           
  1312                           ;LCD.c: 62: }
  1313                           ;LCD.c: 64: lcd_send( E_DISPLAY_ON_OFF_CTRL | 0, FALSE );
  1314  07C2  01F6               	clrf	?_lcd_send
  1315  07C3  3008               	movlw	8
  1316  07C4  118A  25D0  118A   	fcall	_lcd_send
  1317                           
  1318                           ;LCD.c: 65: _delay((unsigned long)((50)*(1000000/1000000.0)));
  1319  07C7  3010               	movlw	16
  1320  07C8  00FB               	movwf	??_lcd_init
  1321  07C9                     u577:	
  1322  07C9  0BFB               	decfsz	??_lcd_init,f
  1323  07CA  2FC9               	goto	u577
  1324  07CB  0000               	nop
  1325                           
  1326                           ;LCD.c: 66: lcd_send( E_CLEAR_DISPLAY, FALSE );
  1327  07CC  01F6               	clrf	?_lcd_send
  1328  07CD  3001               	movlw	1
  1329  07CE  118A  25D0  118A   	fcall	_lcd_send
  1330                           
  1331                           ;LCD.c: 67: _delay((unsigned long)((2)*(1000000/1000.0)));
  1332  07D1  3003               	movlw	3
  1333  07D2  00FC               	movwf	??_lcd_init+1
  1334  07D3  3097               	movlw	151
  1335  07D4  00FB               	movwf	??_lcd_init
  1336  07D5                     u587:	
  1337  07D5  0BFB               	decfsz	??_lcd_init,f
  1338  07D6  2FD5               	goto	u587
  1339  07D7  0BFC               	decfsz	??_lcd_init+1,f
  1340  07D8  2FD5               	goto	u587
  1341  07D9  2FDA               	nop2
  1342                           
  1343                           ;LCD.c: 68: lcd_send( E_ENTRY_MODE_SET | 0 | (1<<1), FALSE );
  1344  07DA  01F6               	clrf	?_lcd_send
  1345  07DB  3006               	movlw	6
  1346  07DC  118A  25D0  118A   	fcall	_lcd_send
  1347                           
  1348                           ;LCD.c: 69: _delay((unsigned long)((50)*(1000000/1000000.0)));
  1349  07DF  3010               	movlw	16
  1350  07E0  00FB               	movwf	??_lcd_init
  1351  07E1                     u597:	
  1352  07E1  0BFB               	decfsz	??_lcd_init,f
  1353  07E2  2FE1               	goto	u597
  1354  07E3  0000               	nop
  1355  07E4  0008               	return
  1356  07E5                     __end_of_lcd_init:	
  1357                           ;LCD.c: 71: return TRUE;
  1358                           ;	Return value of _lcd_init is never used
  1359                           
  1360                           
  1361                           	psect	text7
  1362  056D                     __ptext7:	
  1363 ;; *************** function _lcd_ioinit *****************
  1364 ;; Defined at:
  1365 ;;		line 62 in file "../LCDIO- PIC16.c"
  1366 ;; Parameters:    Size  Location     Type
  1367 ;;  iodata          1    wreg     PTR void 
  1368 ;;		 -> NULL(0), 
  1369 ;; Auto vars:     Size  Location     Type
  1370 ;;  iodata          1    0[COMMON] PTR void 
  1371 ;;		 -> NULL(0), 
  1372 ;;  i               1    3[COMMON] unsigned char 
  1373 ;; Return value:  Size  Location     Type
  1374 ;;                  1    wreg      unsigned char 
  1375 ;; Registers used:
  1376 ;;		wreg, fsr0l, fsr0h, status,2, status,0, pclath, cstack
  1377 ;; Tracked objects:
  1378 ;;		On entry : 0/0
  1379 ;;		On exit  : 0/0
  1380 ;;		Unchanged: 0/0
  1381 ;; Data sizes:     COMMON   BANK0   BANK1   BANK3   BANK2
  1382 ;;      Params:         0       0       0       0       0
  1383 ;;      Locals:         1       0       0       0       0
  1384 ;;      Temps:          1       0       0       0       0
  1385 ;;      Totals:         2       0       0       0       0
  1386 ;;Total ram usage:        2 bytes
  1387 ;; Hardware stack levels used:    1
  1388 ;; Hardware stack levels required when called:    1
  1389 ;; This function calls:
  1390 ;;		_lcd_ioset
  1391 ;; This function is called by:
  1392 ;;		_lcd_init
  1393 ;; This function uses a non-reentrant model
  1394 ;;
  1395                           
  1396                           
  1397                           ;psect for function _lcd_ioinit
  1398  056D                     _lcd_ioinit:	
  1399                           
  1400                           ;LCDIO- PIC16.c: 63: BYTE i = 0;
  1401                           
  1402                           ;incstack = 0
  1403                           ; Regs used in _lcd_ioinit: [wreg-fsr0h+status,2+status,0+pclath+cstack]
  1404  056D  01F3               	clrf	lcd_ioinit@i
  1405                           
  1406                           ;LCDIO- PIC16.c: 64: TRISA &= 0x11110000;
  1407  056E  1683               	bsf	3,5	;RP0=1, select bank1
  1408  056F  1303               	bcf	3,6	;RP1=0, select bank1
  1409  0570  0185               	clrf	5	;volatile
  1410                           
  1411                           ;LCDIO- PIC16.c: 66: TRISBbits.TRISB0 = 0;
  1412  0571  1006               	bcf	6,0	;volatile
  1413                           
  1414                           ;LCDIO- PIC16.c: 67: TRISBbits.TRISB1 = 0;
  1415  0572  1086               	bcf	6,1	;volatile
  1416                           
  1417                           ;LCDIO- PIC16.c: 70: for (i = 0; i < 8; i++)
  1418  0573  01F3               	clrf	lcd_ioinit@i
  1419  0574  3008               	movlw	8
  1420  0575  0273               	subwf	lcd_ioinit@i,w
  1421  0576  1803               	btfsc	3,0
  1422  0577  2D85               	goto	l969
  1423  0578                     l963:	
  1424                           
  1425                           ;LCDIO- PIC16.c: 71: lcd_ioset(i, FALSE);
  1426  0578  01F0               	clrf	?_lcd_ioset
  1427  0579  0873               	movf	lcd_ioinit@i,w
  1428  057A  118A  265E  118A   	fcall	_lcd_ioset
  1429  057D  3001               	movlw	1
  1430  057E  00F2               	movwf	??_lcd_ioinit
  1431  057F  0872               	movf	??_lcd_ioinit,w
  1432  0580  07F3               	addwf	lcd_ioinit@i,f
  1433  0581  3008               	movlw	8
  1434  0582  0273               	subwf	lcd_ioinit@i,w
  1435  0583  1C03               	skipc
  1436  0584  2D78               	goto	l963
  1437  0585                     l969:	
  1438                           
  1439                           ;LCDIO- PIC16.c: 76: return 4;
  1440  0585  3004               	movlw	4
  1441  0586  0008               	return
  1442  0587                     __end_of_lcd_ioinit:	
  1443                           
  1444                           	psect	text8
  1445  05D0                     __ptext8:	
  1446 ;; *************** function _lcd_send *****************
  1447 ;; Defined at:
  1448 ;;		line 144 in file "../LCD.c"
  1449 ;; Parameters:    Size  Location     Type
  1450 ;;  data            1    wreg     unsigned char 
  1451 ;;  rs              1    6[COMMON] enum E971
  1452 ;; Auto vars:     Size  Location     Type
  1453 ;;  data            1    8[COMMON] unsigned char 
  1454 ;; Return value:  Size  Location     Type
  1455 ;;		None               void
  1456 ;; Registers used:
  1457 ;;		wreg, fsr0l, fsr0h, status,2, status,0, pclath, cstack
  1458 ;; Tracked objects:
  1459 ;;		On entry : 0/0
  1460 ;;		On exit  : 0/0
  1461 ;;		Unchanged: 0/0
  1462 ;; Data sizes:     COMMON   BANK0   BANK1   BANK3   BANK2
  1463 ;;      Params:         1       0       0       0       0
  1464 ;;      Locals:         1       0       0       0       0
  1465 ;;      Temps:          1       0       0       0       0
  1466 ;;      Totals:         3       0       0       0       0
  1467 ;;Total ram usage:        3 bytes
  1468 ;; Hardware stack levels used:    1
  1469 ;; Hardware stack levels required when called:    2
  1470 ;; This function calls:
  1471 ;;		_lcd_iowrite4
  1472 ;;		_lcd_ioset
  1473 ;;		_lcd_iowrite8
  1474 ;; This function is called by:
  1475 ;;		_main
  1476 ;;		_lcd_init
  1477 ;;		_lcd_clear
  1478 ;;		_lcd_on
  1479 ;;		_lcd_goto
  1480 ;;		_lcd_puts
  1481 ;;		_lcd_create_char
  1482 ;;		_lcd_home
  1483 ;;		_lcd_off
  1484 ;;		_lcd_cursor
  1485 ;;		_lcd_cursor_left
  1486 ;;		_lcd_cursor_right
  1487 ;;		_lcd_scroll_left
  1488 ;;		_lcd_scroll_right
  1489 ;; This function uses a non-reentrant model
  1490 ;;
  1491                           
  1492                           
  1493                           ;psect for function _lcd_send
  1494  05D0                     _lcd_send:	
  1495                           
  1496                           ;incstack = 0
  1497                           ; Regs used in _lcd_send: [wreg-fsr0h+status,2+status,0+pclath+cstack]
  1498                           ;lcd_send@data stored from wreg
  1499  05D0  00F8               	movwf	lcd_send@data
  1500                           
  1501                           ;LCD.c: 146: if (rs)
  1502  05D1  0876               	movf	lcd_send@rs,w
  1503  05D2  1903               	btfsc	3,2
  1504  05D3  2DD7               	goto	l1011
  1505                           
  1506                           ;LCD.c: 147: lcd_ioset(E_RS_PIN,TRUE);
  1507  05D4  01F0               	clrf	?_lcd_ioset
  1508  05D5  0AF0               	incf	?_lcd_ioset,f
  1509  05D6  2DD8               	goto	L3
  1510  05D7                     l1011:	
  1511                           
  1512                           ;LCD.c: 148: else
  1513                           ;LCD.c: 149: lcd_ioset(E_RS_PIN,FALSE);
  1514  05D7  01F0               	clrf	?_lcd_ioset
  1515  05D8                     L3:	
  1516  05D8  3009               	movlw	9
  1517  05D9  118A  265E  118A   	fcall	_lcd_ioset
  1518                           
  1519                           ;LCD.c: 151: lcd_ioset(E_RW_PIN,FALSE);
  1520  05DC  01F0               	clrf	?_lcd_ioset
  1521  05DD  300A               	movlw	10
  1522  05DE  118A  265E  118A   	fcall	_lcd_ioset
  1523                           
  1524                           ;LCD.c: 153: if (iomode == 4) {
  1525  05E1  1283               	bcf	3,5	;RP0=0, select bank0
  1526  05E2  1303               	bcf	3,6	;RP1=0, select bank0
  1527  05E3  082B               	movf	_iomode,w
  1528  05E4  3A04               	xorlw	4
  1529  05E5  1D03               	skipz
  1530  05E6  2DF7               	goto	l1017
  1531                           
  1532                           ;LCD.c: 154: lcd_iowrite4(data >> 4);
  1533  05E7  0878               	movf	lcd_send@data,w
  1534  05E8  00F7               	movwf	??_lcd_send
  1535  05E9  3004               	movlw	4
  1536  05EA                     u325:	
  1537  05EA  1003               	clrc
  1538  05EB  0CF7               	rrf	??_lcd_send,f
  1539  05EC  3EFF               	addlw	-1
  1540  05ED  1D03               	skipz
  1541  05EE  2DEA               	goto	u325
  1542  05EF  0877               	movf	??_lcd_send,w
  1543  05F0  118A  262A  118A   	fcall	_lcd_iowrite4
  1544                           
  1545                           ;LCD.c: 155: lcd_iowrite4(data);
  1546  05F3  0878               	movf	lcd_send@data,w
  1547  05F4  118A  262A         	fcall	_lcd_iowrite4
  1548                           
  1549                           ;LCD.c: 156: } else {
  1550  05F6  0008               	return
  1551  05F7                     l1017:	
  1552                           
  1553                           ;LCD.c: 157: lcd_iowrite8(data);
  1554  05F7  0878               	movf	lcd_send@data,w
  1555  05F8  118A  25FB         	fcall	_lcd_iowrite8
  1556  05FA  0008               	return
  1557  05FB                     __end_of_lcd_send:	
  1558                           
  1559                           	psect	text9
  1560  05FB                     __ptext9:	
  1561 ;; *************** function _lcd_iowrite8 *****************
  1562 ;; Defined at:
  1563 ;;		line 145 in file "../LCDIO- PIC16.c"
  1564 ;; Parameters:    Size  Location     Type
  1565 ;;  data            1    wreg     unsigned char 
  1566 ;; Auto vars:     Size  Location     Type
  1567 ;;  data            1    4[COMMON] unsigned char 
  1568 ;;  i               1    5[COMMON] unsigned char 
  1569 ;; Return value:  Size  Location     Type
  1570 ;;		None               void
  1571 ;; Registers used:
  1572 ;;		wreg, fsr0l, fsr0h, status,2, status,0, pclath, cstack
  1573 ;; Tracked objects:
  1574 ;;		On entry : 0/0
  1575 ;;		On exit  : 0/0
  1576 ;;		Unchanged: 0/0
  1577 ;; Data sizes:     COMMON   BANK0   BANK1   BANK3   BANK2
  1578 ;;      Params:         0       0       0       0       0
  1579 ;;      Locals:         2       0       0       0       0
  1580 ;;      Temps:          2       0       0       0       0
  1581 ;;      Totals:         4       0       0       0       0
  1582 ;;Total ram usage:        4 bytes
  1583 ;; Hardware stack levels used:    1
  1584 ;; Hardware stack levels required when called:    1
  1585 ;; This function calls:
  1586 ;;		_lcd_ioset
  1587 ;; This function is called by:
  1588 ;;		_lcd_send
  1589 ;; This function uses a non-reentrant model
  1590 ;;
  1591                           
  1592                           
  1593                           ;psect for function _lcd_iowrite8
  1594  05FB                     _lcd_iowrite8:	
  1595                           
  1596                           ;incstack = 0
  1597                           ; Regs used in _lcd_iowrite8: [wreg-fsr0h+status,2+status,0+pclath+cstack]
  1598                           ;lcd_iowrite8@data stored from wreg
  1599  05FB  00F4               	movwf	lcd_iowrite8@data
  1600                           
  1601                           ;LCDIO- PIC16.c: 146: BYTE i;
  1602                           ;LCDIO- PIC16.c: 149: for (i = 0; i < 8; i++)
  1603  05FC  01F5               	clrf	lcd_iowrite8@i
  1604  05FD  3008               	movlw	8
  1605  05FE  0275               	subwf	lcd_iowrite8@i,w
  1606  05FF  1803               	btfsc	3,0
  1607  0600  2E1B               	goto	l1001
  1608  0601                     l995:	
  1609                           
  1610                           ;LCDIO- PIC16.c: 150: lcd_ioset(i, (data & (1 << i )));
  1611  0601  3001               	movlw	1
  1612  0602  00F2               	movwf	??_lcd_iowrite8
  1613  0603  0A75               	incf	lcd_iowrite8@i,w
  1614  0604  2E07               	goto	u284
  1615  0605                     u285:	
  1616  0605  1003               	clrc
  1617  0606  0DF2               	rlf	??_lcd_iowrite8,f
  1618  0607                     u284:	
  1619  0607  3EFF               	addlw	-1
  1620  0608  1D03               	skipz
  1621  0609  2E05               	goto	u285
  1622  060A  0872               	movf	??_lcd_iowrite8,w
  1623  060B  0574               	andwf	lcd_iowrite8@data,w
  1624  060C  00F3               	movwf	??_lcd_iowrite8+1
  1625  060D  0873               	movf	??_lcd_iowrite8+1,w
  1626  060E  00F0               	movwf	?_lcd_ioset
  1627  060F  0875               	movf	lcd_iowrite8@i,w
  1628  0610  118A  265E  118A   	fcall	_lcd_ioset
  1629  0613  3001               	movlw	1
  1630  0614  00F2               	movwf	??_lcd_iowrite8
  1631  0615  0872               	movf	??_lcd_iowrite8,w
  1632  0616  07F5               	addwf	lcd_iowrite8@i,f
  1633  0617  3008               	movlw	8
  1634  0618  0275               	subwf	lcd_iowrite8@i,w
  1635  0619  1C03               	skipc
  1636  061A  2E01               	goto	l995
  1637  061B                     l1001:	
  1638                           
  1639                           ;LCDIO- PIC16.c: 153: lcd_ioset(E_EN_PIN,TRUE);
  1640  061B  01F0               	clrf	?_lcd_ioset
  1641  061C  0AF0               	incf	?_lcd_ioset,f
  1642  061D  3008               	movlw	8
  1643  061E  118A  265E  118A   	fcall	_lcd_ioset
  1644                           
  1645                           ;LCDIO- PIC16.c: 154: _delay((unsigned long)((10)*(1000000/1000000.0)));
  1646  0621  3003               	movlw	3
  1647  0622  00F2               	movwf	??_lcd_iowrite8
  1648  0623                     u607:	
  1649  0623  0BF2               	decfsz	??_lcd_iowrite8,f
  1650  0624  2E23               	goto	u607
  1651                           
  1652                           ;LCDIO- PIC16.c: 155: lcd_ioset(E_EN_PIN,FALSE);
  1653  0625  01F0               	clrf	?_lcd_ioset
  1654  0626  3008               	movlw	8
  1655  0627  118A  265E         	fcall	_lcd_ioset
  1656  0629  0008               	return
  1657  062A                     __end_of_lcd_iowrite8:	
  1658                           
  1659                           	psect	text10
  1660  062A                     __ptext10:	
  1661 ;; *************** function _lcd_iowrite4 *****************
  1662 ;; Defined at:
  1663 ;;		line 131 in file "../LCDIO- PIC16.c"
  1664 ;; Parameters:    Size  Location     Type
  1665 ;;  data            1    wreg     unsigned char 
  1666 ;; Auto vars:     Size  Location     Type
  1667 ;;  data            1    4[COMMON] unsigned char 
  1668 ;;  i               1    5[COMMON] unsigned char 
  1669 ;; Return value:  Size  Location     Type
  1670 ;;		None               void
  1671 ;; Registers used:
  1672 ;;		wreg, fsr0l, fsr0h, status,2, status,0, pclath, cstack
  1673 ;; Tracked objects:
  1674 ;;		On entry : 0/0
  1675 ;;		On exit  : 0/0
  1676 ;;		Unchanged: 0/0
  1677 ;; Data sizes:     COMMON   BANK0   BANK1   BANK3   BANK2
  1678 ;;      Params:         0       0       0       0       0
  1679 ;;      Locals:         2       0       0       0       0
  1680 ;;      Temps:          2       0       0       0       0
  1681 ;;      Totals:         4       0       0       0       0
  1682 ;;Total ram usage:        4 bytes
  1683 ;; Hardware stack levels used:    1
  1684 ;; Hardware stack levels required when called:    1
  1685 ;; This function calls:
  1686 ;;		_lcd_ioset
  1687 ;; This function is called by:
  1688 ;;		_lcd_init
  1689 ;;		_lcd_send
  1690 ;; This function uses a non-reentrant model
  1691 ;;
  1692                           
  1693                           
  1694                           ;psect for function _lcd_iowrite4
  1695  062A                     _lcd_iowrite4:	
  1696                           
  1697                           ;incstack = 0
  1698                           ; Regs used in _lcd_iowrite4: [wreg-fsr0h+status,2+status,0+pclath+cstack]
  1699                           ;lcd_iowrite4@data stored from wreg
  1700  062A  00F4               	movwf	lcd_iowrite4@data
  1701                           
  1702                           ;LCDIO- PIC16.c: 132: BYTE i;
  1703                           ;LCDIO- PIC16.c: 135: for (i = 4; i < 8; i++)
  1704  062B  3004               	movlw	4
  1705  062C  00F2               	movwf	??_lcd_iowrite4
  1706  062D  0872               	movf	??_lcd_iowrite4,w
  1707  062E  00F5               	movwf	lcd_iowrite4@i
  1708  062F  3008               	movlw	8
  1709  0630  0275               	subwf	lcd_iowrite4@i,w
  1710  0631  1803               	btfsc	3,0
  1711  0632  2E4F               	goto	l983
  1712  0633                     l977:	
  1713                           
  1714                           ;LCDIO- PIC16.c: 136: lcd_ioset(i, (data & (1 << i - 4)));
  1715  0633  3001               	movlw	1
  1716  0634  00F2               	movwf	??_lcd_iowrite4
  1717  0635  0875               	movf	lcd_iowrite4@i,w
  1718  0636  3EFC               	addlw	-4
  1719  0637  3E01               	addlw	1
  1720  0638  2E3B               	goto	u254
  1721  0639                     u255:	
  1722  0639  1003               	clrc
  1723  063A  0DF2               	rlf	??_lcd_iowrite4,f
  1724  063B                     u254:	
  1725  063B  3EFF               	addlw	-1
  1726  063C  1D03               	skipz
  1727  063D  2E39               	goto	u255
  1728  063E  0872               	movf	??_lcd_iowrite4,w
  1729  063F  0574               	andwf	lcd_iowrite4@data,w
  1730  0640  00F3               	movwf	??_lcd_iowrite4+1
  1731  0641  0873               	movf	??_lcd_iowrite4+1,w
  1732  0642  00F0               	movwf	?_lcd_ioset
  1733  0643  0875               	movf	lcd_iowrite4@i,w
  1734  0644  118A  265E  118A   	fcall	_lcd_ioset
  1735  0647  3001               	movlw	1
  1736  0648  00F2               	movwf	??_lcd_iowrite4
  1737  0649  0872               	movf	??_lcd_iowrite4,w
  1738  064A  07F5               	addwf	lcd_iowrite4@i,f
  1739  064B  3008               	movlw	8
  1740  064C  0275               	subwf	lcd_iowrite4@i,w
  1741  064D  1C03               	skipc
  1742  064E  2E33               	goto	l977
  1743  064F                     l983:	
  1744                           
  1745                           ;LCDIO- PIC16.c: 139: lcd_ioset(E_EN_PIN,TRUE);
  1746  064F  01F0               	clrf	?_lcd_ioset
  1747  0650  0AF0               	incf	?_lcd_ioset,f
  1748  0651  3008               	movlw	8
  1749  0652  118A  265E  118A   	fcall	_lcd_ioset
  1750                           
  1751                           ;LCDIO- PIC16.c: 140: _delay((unsigned long)((10)*(1000000/1000000.0)));
  1752  0655  3003               	movlw	3
  1753  0656  00F2               	movwf	??_lcd_iowrite4
  1754  0657                     u617:	
  1755  0657  0BF2               	decfsz	??_lcd_iowrite4,f
  1756  0658  2E57               	goto	u617
  1757                           
  1758                           ;LCDIO- PIC16.c: 141: lcd_ioset(E_EN_PIN,FALSE);
  1759  0659  01F0               	clrf	?_lcd_ioset
  1760  065A  3008               	movlw	8
  1761  065B  118A  265E         	fcall	_lcd_ioset
  1762  065D  0008               	return
  1763  065E                     __end_of_lcd_iowrite4:	
  1764                           
  1765                           	psect	text11
  1766  065E                     __ptext11:	
  1767 ;; *************** function _lcd_ioset *****************
  1768 ;; Defined at:
  1769 ;;		line 81 in file "../LCDIO- PIC16.c"
  1770 ;; Parameters:    Size  Location     Type
  1771 ;;  pin             1    wreg     enum E1000
  1772 ;;  level           1    0[COMMON] enum E971
  1773 ;; Auto vars:     Size  Location     Type
  1774 ;;  pin             1    1[COMMON] enum E1000
  1775 ;; Return value:  Size  Location     Type
  1776 ;;		None               void
  1777 ;; Registers used:
  1778 ;;		wreg, fsr0l, fsr0h, status,2, status,0
  1779 ;; Tracked objects:
  1780 ;;		On entry : 0/0
  1781 ;;		On exit  : 0/0
  1782 ;;		Unchanged: 0/0
  1783 ;; Data sizes:     COMMON   BANK0   BANK1   BANK3   BANK2
  1784 ;;      Params:         1       0       0       0       0
  1785 ;;      Locals:         1       0       0       0       0
  1786 ;;      Temps:          0       0       0       0       0
  1787 ;;      Totals:         2       0       0       0       0
  1788 ;;Total ram usage:        2 bytes
  1789 ;; Hardware stack levels used:    1
  1790 ;; This function calls:
  1791 ;;		Nothing
  1792 ;; This function is called by:
  1793 ;;		_lcd_send
  1794 ;;		_lcd_ioinit
  1795 ;;		_lcd_iowrite4
  1796 ;;		_lcd_iowrite8
  1797 ;; This function uses a non-reentrant model
  1798 ;;
  1799                           
  1800                           
  1801                           ;psect for function _lcd_ioset
  1802  065E                     _lcd_ioset:	
  1803                           
  1804                           ;incstack = 0
  1805                           ; Regs used in _lcd_ioset: [wreg-fsr0h+status,2+status,0]
  1806                           ;lcd_ioset@pin stored from wreg
  1807  065E  00F1               	movwf	lcd_ioset@pin
  1808                           
  1809                           ;LCDIO- PIC16.c: 82: switch (pin) {
  1810  065F  2E90               	goto	l947
  1811  0660                     l933:	
  1812                           ;LCDIO- PIC16.c: 103: case E_D4_PIN:
  1813                           
  1814                           ;LCDIO- PIC16.c: 102: break;
  1815                           
  1816                           ;LCDIO- PIC16.c: 98: case E_D3_PIN:
  1817                           
  1818                           ;LCDIO- PIC16.c: 97: break;
  1819                           
  1820                           ;LCDIO- PIC16.c: 93: case E_D2_PIN:
  1821                           
  1822                           ;LCDIO- PIC16.c: 92: break;
  1823                           
  1824                           ;LCDIO- PIC16.c: 88: case E_D1_PIN:
  1825                           
  1826                           ;LCDIO- PIC16.c: 87: break;
  1827                           
  1828                           ;LCDIO- PIC16.c: 83: case E_D0_PIN:
  1829                           
  1830                           
  1831                           ;LCDIO- PIC16.c: 104: PORTAbits.RA0 = level;
  1832  0660  0870               	movf	lcd_ioset@level,w
  1833  0661  1283               	bcf	3,5	;RP0=0, select bank0
  1834  0662  1303               	bcf	3,6	;RP1=0, select bank0
  1835  0663  1D03               	skipz
  1836  0664  1405               	bsf	5,0	;volatile
  1837  0665  1903               	skipnz
  1838  0666  1005               	bcf	5,0	;volatile
  1839                           
  1840                           ;LCDIO- PIC16.c: 105: break;
  1841  0667  0008               	return
  1842  0668                     l935:	
  1843                           ;LCDIO- PIC16.c: 106: case E_D5_PIN:
  1844                           
  1845                           
  1846                           ;LCDIO- PIC16.c: 107: PORTAbits.RA1 = level;
  1847  0668  0870               	movf	lcd_ioset@level,w
  1848  0669  1283               	bcf	3,5	;RP0=0, select bank0
  1849  066A  1303               	bcf	3,6	;RP1=0, select bank0
  1850  066B  1D03               	skipz
  1851  066C  1485               	bsf	5,1	;volatile
  1852  066D  1903               	skipnz
  1853  066E  1085               	bcf	5,1	;volatile
  1854                           
  1855                           ;LCDIO- PIC16.c: 108: break;
  1856  066F  0008               	return
  1857  0670                     l937:	
  1858                           ;LCDIO- PIC16.c: 109: case E_D6_PIN:
  1859                           
  1860                           
  1861                           ;LCDIO- PIC16.c: 110: PORTAbits.RA2 = level;
  1862  0670  0870               	movf	lcd_ioset@level,w
  1863  0671  1283               	bcf	3,5	;RP0=0, select bank0
  1864  0672  1303               	bcf	3,6	;RP1=0, select bank0
  1865  0673  1D03               	skipz
  1866  0674  1505               	bsf	5,2	;volatile
  1867  0675  1903               	skipnz
  1868  0676  1105               	bcf	5,2	;volatile
  1869                           
  1870                           ;LCDIO- PIC16.c: 111: break;
  1871  0677  0008               	return
  1872  0678                     l939:	
  1873                           ;LCDIO- PIC16.c: 112: case E_D7_PIN:
  1874                           
  1875                           
  1876                           ;LCDIO- PIC16.c: 113: PORTAbits.RA3 = level;
  1877  0678  0870               	movf	lcd_ioset@level,w
  1878  0679  1283               	bcf	3,5	;RP0=0, select bank0
  1879  067A  1303               	bcf	3,6	;RP1=0, select bank0
  1880  067B  1D03               	skipz
  1881  067C  1585               	bsf	5,3	;volatile
  1882  067D  1903               	skipnz
  1883  067E  1185               	bcf	5,3	;volatile
  1884                           
  1885                           ;LCDIO- PIC16.c: 114: break;
  1886  067F  0008               	return
  1887  0680                     l941:	
  1888                           ;LCDIO- PIC16.c: 116: case E_RS_PIN:
  1889                           
  1890                           
  1891                           ;LCDIO- PIC16.c: 117: PORTBbits.RB1 = level;
  1892  0680  0870               	movf	lcd_ioset@level,w
  1893  0681  1283               	bcf	3,5	;RP0=0, select bank0
  1894  0682  1303               	bcf	3,6	;RP1=0, select bank0
  1895  0683  1D03               	skipz
  1896  0684  1486               	bsf	6,1	;volatile
  1897  0685  1903               	skipnz
  1898  0686  1086               	bcf	6,1	;volatile
  1899                           
  1900                           ;LCDIO- PIC16.c: 118: break;
  1901  0687  0008               	return
  1902  0688                     l943:	
  1903                           ;LCDIO- PIC16.c: 119: case E_EN_PIN:
  1904                           
  1905                           
  1906                           ;LCDIO- PIC16.c: 120: PORTBbits.RB0 = level;
  1907  0688  0870               	movf	lcd_ioset@level,w
  1908  0689  1283               	bcf	3,5	;RP0=0, select bank0
  1909  068A  1303               	bcf	3,6	;RP1=0, select bank0
  1910  068B  1D03               	skipz
  1911  068C  1406               	bsf	6,0	;volatile
  1912  068D  1903               	skipnz
  1913  068E  1006               	bcf	6,0	;volatile
  1914                           
  1915                           ;LCDIO- PIC16.c: 127: }
  1916                           
  1917                           ;LCDIO- PIC16.c: 126: break;
  1918                           
  1919                           ;LCDIO- PIC16.c: 122: case E_RW_PIN:
  1920                           
  1921                           ;LCDIO- PIC16.c: 121: break;
  1922  068F  0008               	return
  1923  0690                     l947:	
  1924  0690  0871               	movf	lcd_ioset@pin,w
  1925                           
  1926                           ; Switch size 1, requested type "space"
  1927                           ; Number of cases is 11, Range of values is 0 to 10
  1928                           ; switch strategies available:
  1929                           ; Name         Instructions Cycles
  1930                           ; direct_byte           29     7 (fixed)
  1931                           ; simple_byte           34    18 (average)
  1932                           ; jumptable            260     6 (fixed)
  1933                           ;	Chosen strategy is direct_byte
  1934  0691  0084               	movwf	4
  1935  0692  300B               	movlw	11
  1936  0693  0204               	subwf	4,w
  1937  0694  1803               	skipnc
  1938  0695  0008               	return
  1939  0696  3000               	movlw	high S1177
  1940  0697  008A               	movwf	10
  1941  0698  1003               	clrc
  1942  0699  0D04               	rlf	4,w
  1943  069A  3E45               	addlw	low S1177
  1944  069B  0082               	movwf	2
  1945  069C                     l150:	
  1946  069C  0008               	return
  1947  069D                     __end_of_lcd_ioset:	
  1948  007E                     btemp	set	126	;btemp
  1949  007E                     wtemp0	set	126
  1950                           
  1951                           	psect	swtext1
  1952  0045                     __pswtext1:	
  1953  0045                     S1177:	
  1954  0045  118A  2E9C         	ljmp	l150
  1955  0047  118A  2E9C         	ljmp	l150
  1956  0049  118A  2E9C         	ljmp	l150
  1957  004B  118A  2E9C         	ljmp	l150
  1958  004D  118A  2E60         	ljmp	l933
  1959  004F  118A  2E68         	ljmp	l935
  1960  0051  118A  2E70         	ljmp	l937
  1961  0053  118A  2E78         	ljmp	l939
  1962  0055  118A  2E88         	ljmp	l943
  1963  0057  118A  2E80         	ljmp	l941
  1964  0059  118A  2E9C         	ljmp	l150


Data Sizes:
    Strings     29
    Constant    32
    Data        6
    BSS         1
    Persistent  1
    Stack       0

Auto Spaces:
    Space          Size  Autos    Used
    COMMON           14     14      14
    BANK0            80      5      13
    BANK1            80      0       0
    BANK3            96      0       0
    BANK2            96      0       0

Pointer List with Targets:

    lcd_ioinit@iodata	PTR void  size(1) Largest target is 0
		 -> NULL(NULL[0]), 

    lcd_create_char@chardata	PTR const unsigned char  size(1) Largest target is 8
		 -> arrowd(CODE[8]), arrowl(CODE[8]), arrowu(CODE[8]), arrowr(CODE[8]), 

    lcd_puts@string	PTR const unsigned char  size(1) Largest target is 17
		 -> STR_2(CODE[12]), STR_1(CODE[17]), 

    lcd_init@iodata	PTR void  size(1) Largest target is 0
		 -> NULL(NULL[0]), 


Critical Paths under _main in COMMON

    _main->_lcd_init
    _lcd_goto->_lcd_send
    _lcd_puts->_lcd_send
    _lcd_on->_lcd_send
    _lcd_clear->_lcd_send
    _lcd_create_char->_lcd_send
    _lcd_init->_lcd_send
    _lcd_ioinit->_lcd_ioset
    _lcd_send->_lcd_iowrite4
    _lcd_send->_lcd_iowrite8
    _lcd_iowrite8->_lcd_ioset
    _lcd_iowrite4->_lcd_ioset

Critical Paths under _main in BANK0

    None.

Critical Paths under _main in BANK1

    None.

Critical Paths under _main in BANK3

    None.

Critical Paths under _main in BANK2

    None.

Call Graph Tables:

 ---------------------------------------------------------------------------------
 (Depth) Function   	        Calls       Base Space   Used Autos Params    Refs
 ---------------------------------------------------------------------------------
 (0) _main                                                 5     5      0    6289
                                              0 BANK0      5     5      0
                           _lcd_init
                    _lcd_create_char
                          _lcd_clear
                             _lcd_on
                           _lcd_puts
                           _lcd_goto
                           _lcd_send
 ---------------------------------------------------------------------------------
 (1) _lcd_goto                                             3     2      1     864
                                              9 COMMON     3     2      1
                           _lcd_send
 ---------------------------------------------------------------------------------
 (1) _lcd_puts                                             2     2      0     819
                                              9 COMMON     2     2      0
                           _lcd_send
 ---------------------------------------------------------------------------------
 (1) _lcd_on                                               1     1      0     774
                                              9 COMMON     1     1      0
                           _lcd_send
 ---------------------------------------------------------------------------------
 (1) _lcd_clear                                            2     2      0     774
                                              9 COMMON     2     2      0
                           _lcd_send
 ---------------------------------------------------------------------------------
 (1) _lcd_create_char                                      4     3      1     887
                                              9 COMMON     4     3      1
                           _lcd_send
 ---------------------------------------------------------------------------------
 (1) _lcd_init                                             5     3      2    1329
                                              9 COMMON     5     3      2
                           _lcd_send
                         _lcd_ioinit
                       _lcd_iowrite4
 ---------------------------------------------------------------------------------
 (2) _lcd_ioinit                                           3     3      0     223
                                              2 COMMON     2     2      0
                          _lcd_ioset
 ---------------------------------------------------------------------------------
 (1) _lcd_send                                             3     2      1     774
                                              6 COMMON     3     2      1
                       _lcd_iowrite4
                          _lcd_ioset
                       _lcd_iowrite8
 ---------------------------------------------------------------------------------
 (2) _lcd_iowrite8                                         4     4      0     266
                                              2 COMMON     4     4      0
                          _lcd_ioset
 ---------------------------------------------------------------------------------
 (2) _lcd_iowrite4                                         4     4      0     266
                                              2 COMMON     4     4      0
                          _lcd_ioset
 ---------------------------------------------------------------------------------
 (3) _lcd_ioset                                            2     1      1     154
                                              0 COMMON     2     1      1
 ---------------------------------------------------------------------------------
 Estimated maximum stack depth 3
 ---------------------------------------------------------------------------------

 Call Graph Graphs:

 _main (ROOT)
   _lcd_init
     _lcd_send
       _lcd_iowrite4
         _lcd_ioset
       _lcd_ioset
       _lcd_iowrite8
         _lcd_ioset
     _lcd_ioinit
       _lcd_ioset
     _lcd_iowrite4
       _lcd_ioset
   _lcd_create_char
     _lcd_send
       _lcd_iowrite4
         _lcd_ioset
       _lcd_ioset
       _lcd_iowrite8
         _lcd_ioset
   _lcd_clear
     _lcd_send
       _lcd_iowrite4
         _lcd_ioset
       _lcd_ioset
       _lcd_iowrite8
         _lcd_ioset
   _lcd_on
     _lcd_send
       _lcd_iowrite4
         _lcd_ioset
       _lcd_ioset
       _lcd_iowrite8
         _lcd_ioset
   _lcd_puts
     _lcd_send
       _lcd_iowrite4
         _lcd_ioset
       _lcd_ioset
       _lcd_iowrite8
         _lcd_ioset
   _lcd_goto
     _lcd_send
       _lcd_iowrite4
         _lcd_ioset
       _lcd_ioset
       _lcd_iowrite8
         _lcd_ioset
   _lcd_send
     _lcd_iowrite4
       _lcd_ioset
     _lcd_ioset
     _lcd_iowrite8
       _lcd_ioset

 Address spaces:
Name               Size   Autos  Total    Cost      Usage
BANK3               60      0       0       9        0.0%
BITBANK3            60      0       0       8        0.0%
SFR3                 0      0       0       4        0.0%
BITSFR3              0      0       0       4        0.0%
BANK2               60      0       0      11        0.0%
BITBANK2            60      0       0      10        0.0%
SFR2                 0      0       0       5        0.0%
BITSFR2              0      0       0       5        0.0%
BANK1               50      0       0       7        0.0%
BITBANK1            50      0       0       6        0.0%
SFR1                 0      0       0       2        0.0%
BITSFR1              0      0       0       2        0.0%
BANK0               50      5       D       5       16.2%
BITBANK0            50      0       0       4        0.0%
SFR0                 0      0       0       1        0.0%
BITSFR0              0      0       0       1        0.0%
COMMON               E      E       E       1      100.0%
BITCOMMON            E      0       0       0        0.0%
CODE                 0      0       0       0        0.0%
DATA                 0      0      1F      12        0.0%
ABS                  0      0      1B       3        0.0%
NULL                 0      0       0       0        0.0%
STACK                0      0       4       2        0.0%
EEDATA             100      0       0       0        0.0%


Microchip Technology PIC Macro Assembler V1.21 build 54009 
Symbol Table                                                                                   Sat Aug  2 05:18:08 2014

           ?_lcd_iowrite4 0070             ?_lcd_iowrite8 0070                         pc 0002  
             __CFG_CP$OFF 0000                        fsr 0004                       l150 069C  
                     l941 0680                       l933 0660                       l943 0688  
                     l935 0668                       l937 0670                       l939 0678  
                     l947 0690                       l963 0578                       l983 064F  
                     l977 0633                       l969 0585                       l995 0601  
                     u325 05EA                       u254 063B                       u255 0639  
                     u415 0701              __CFG_CPD$OFF 0000                       u507 077A  
                     u355 05B0                       u284 0607                       u285 0605  
                     u517 0783                       u437 070B                       u607 0623  
                     u527 078D                       u447 071B                       u617 0657  
                     u537 07A0                       u457 0551                       u547 07AB  
                     u467 0540                       u557 07B5                       u477 0754  
                     u567 07BF                       u487 0767                       u577 07C9  
                     u497 0771                       u587 07D5                       u597 07E1  
        lcd_ioinit@iodata 0070                       fsr0 0004                       indf 0000  
             lcd_goto@col 007B               lcd_goto@row 0079              __CFG_FOSC$XT 0000  
             lcd_ioinit@i 0073                      S1177 0045              __CFG_LVP$OFF 0000  
                    l1001 061B                      l1011 05D7                      l1017 05F7  
                    l1105 0593                      l1043 0791                      l1109 059C  
                    l1057 07C2                      l1139 06F4                      l1099 0556  
                    STR_1 0028                      STR_2 0039              __CFG_WRT$OFF 0000  
                    _main 069D                      btemp 007E              lcd_init@cols 0079  
            lcd_init@rows 007A                      start 0000             __CFG_IESO$OFF 0000  
           __CFG_MCLRE$ON 0000            ??_lcd_iowrite4 0072            ??_lcd_iowrite8 0072  
            lcd_ioset@pin 0071              lcd_send@data 0078                     ?_main 0070  
           __CFG_WDTE$OFF 0000                     _ANSEL 009B                     _TRISA 0085  
                   _TRISB 0086            __CFG_CCPMX$RB0 0000            __CFG_FCMEN$OFF 0000  
                   main@i 0029            __CFG_BOREN$OFF 0000                     pclath 000A  
                   status 0003                     wtemp0 007E           __initialization 07E5  
            __end_of_main 073E                    ??_main 0026             lcd_iowrite4@i 0075  
           lcd_iowrite8@i 0075            __CFG_PWRTE$OFF 0000          __end_of_lcd_init 07E5  
        __end_of_lcd_goto 05A7          __end_of_lcd_send 05FB          __end_of_lcd_puts 056D  
                  _lcd_on 0546  __size_of_lcd_create_char 0029                    _arrowd 0008  
                  _arrowl 0010                    _arrowr 0018                    _arrowu 0020  
                  _iomode 002B            lcd_init@iodata 007D      __end_of_lcd_iowrite4 065E  
    __end_of_lcd_iowrite8 062A   __end_of__initialization 07FD            __pcstackCOMMON 0070  
            __pidataBANK0 0531            lcd_ioset@level 0070          lcd_iowrite4@data 0074  
        lcd_iowrite8@data 0074        __size_of_lcd_clear 000F        __size_of_lcd_ioset 003F  
              __pbssBANK0 002C                __pmaintext 069D    lcd_create_char@charnum 007B  
                 ?_lcd_on 0070         ??_lcd_create_char 007A                _lcd_ioinit 056D  
              _lcdcolumns 0024                 ?_lcd_init 0079                 ?_lcd_goto 0079  
               ?_lcd_send 0076                 ?_lcd_puts 0070                __stringtab 0002  
       __end_of_lcd_clear 0546         __end_of_lcd_ioset 069D           __size_of_lcd_on 000F  
                 __ptext1 0587                   __ptext2 0555                   __ptext3 0546  
                 __ptext4 0537                   __ptext5 05A7                   __ptext6 073E  
                 __ptext7 056D                   __ptext8 05D0                   __ptext9 05FB  
   __size_of_lcd_iowrite4 0034     __size_of_lcd_iowrite8 002F                   _lcdrows 0025  
                 _rowaddr 0020                ??_lcd_init 007B                ??_lcd_goto 007A  
              ??_lcd_send 0077                ??_lcd_puts 0079      end_of_initialization 07FD  
          lcd_puts@string 007A              _lcd_iowrite4 062A              _lcd_iowrite8 05FB  
               _PORTAbits 0005                 _PORTBbits 0006                 _TRISBbits 0086  
             ?_lcd_ioinit 0070                lcd_send@rs 0076            __end_of_lcd_on 0555  
          __end_of_arrowd 0010            __end_of_arrowl 0018            __end_of_arrowr 0020  
          __end_of_arrowu 0028       start_initialization 07E5          lcd_create_char@i 007C  
     __size_of_lcd_ioinit 001A           _lcd_create_char 05A7                  ??_lcd_on 0079  
             __pdataBANK0 0020             __pcstackBANK0 0026       __end_of__stringdata 0045  
       __size_of_lcd_init 00A7         __size_of_lcd_goto 0020         __size_of_lcd_send 002B  
       __size_of_lcd_puts 0018                 __pnvBANK0 002B   lcd_create_char@chardata 0079  
               _lcd_clear 0537                 _lcd_ioset 065E                 __pstrings 0002  
               __pswtext1 0045   __end_of_lcd_create_char 05D0                ?_lcd_clear 0070  
              ?_lcd_ioset 0070               __stringbase 0007               __stringdata 0028  
            ??_lcd_ioinit 0072        __end_of_lcd_ioinit 0587        __end_of__stringtab 0008  
                __ptext10 062A                  __ptext11 065E                  _lcd_init 073E  
                _lcd_goto 0587                  _lcd_send 05D0                  _dispctrl 002C  
                _lcd_puts 0555             __size_of_main 00A1          ?_lcd_create_char 0079  
             ??_lcd_clear 0079               ??_lcd_ioset 0071                 stringcode 0002  
                stringdir 0002                  stringtab 0002  
