

Microchip Technology PIC LITE Macro Assembler V1.21 build 54009 
                                                                                               Thu Aug  7 17:32:19 2014

Microchip Technology Omniscient Code Generator (Lite mode) build 54009
     1                           	processor	16F88
     2                           	opt	pw 120
     3                           	opt	lm
     4                           	psect	idataBANK0,global,class=CODE,delta=2
     5                           	psect	strings,global,class=STRING,delta=2
     6                           	psect	nvBANK0,global,class=BANK0,space=1,delta=1
     7                           	psect	cinit,global,class=CODE,merge=1,delta=2
     8                           	psect	bssBANK0,global,class=BANK0,space=1,delta=1
     9                           	psect	dataBANK0,global,class=BANK0,space=1,delta=1
    10                           	psect	cstackCOMMON,global,class=COMMON,space=1,delta=1
    11                           	psect	cstackBANK0,global,class=BANK0,space=1,delta=1
    12                           	psect	maintext,global,class=CODE,split=1,delta=2
    13                           	psect	text1,local,class=CODE,merge=1,delta=2
    14                           	psect	text2,local,class=CODE,merge=1,delta=2
    15                           	psect	text3,local,class=CODE,merge=1,delta=2
    16                           	psect	text4,local,class=CODE,merge=1,delta=2
    17                           	psect	text5,local,class=CODE,merge=1,delta=2
    18                           	psect	text6,local,class=CODE,merge=1,delta=2
    19                           	psect	text7,local,class=CODE,merge=1,delta=2
    20                           	psect	text8,local,class=CODE,merge=1,delta=2
    21                           	psect	text9,local,class=CODE,merge=1,delta=2
    22                           	psect	text10,local,class=CODE,merge=1,delta=2
    23                           	psect	text11,local,class=CODE,merge=1,delta=2
    24                           	dabs	1,0x7E,2
    25  0000                     	;# 
    26  0001                     	;# 
    27  0002                     	;# 
    28  0003                     	;# 
    29  0004                     	;# 
    30  0005                     	;# 
    31  0006                     	;# 
    32  000A                     	;# 
    33  000B                     	;# 
    34  000C                     	;# 
    35  000D                     	;# 
    36  000E                     	;# 
    37  000E                     	;# 
    38  000F                     	;# 
    39  0010                     	;# 
    40  0011                     	;# 
    41  0012                     	;# 
    42  0013                     	;# 
    43  0014                     	;# 
    44  0015                     	;# 
    45  0015                     	;# 
    46  0016                     	;# 
    47  0017                     	;# 
    48  0018                     	;# 
    49  0019                     	;# 
    50  001A                     	;# 
    51  001E                     	;# 
    52  001F                     	;# 
    53  0081                     	;# 
    54  0085                     	;# 
    55  0086                     	;# 
    56  008C                     	;# 
    57  008D                     	;# 
    58  008E                     	;# 
    59  008F                     	;# 
    60  0090                     	;# 
    61  0092                     	;# 
    62  0093                     	;# 
    63  0094                     	;# 
    64  0098                     	;# 
    65  0099                     	;# 
    66  009B                     	;# 
    67  009C                     	;# 
    68  009D                     	;# 
    69  009E                     	;# 
    70  009F                     	;# 
    71  0105                     	;# 
    72  010C                     	;# 
    73  010D                     	;# 
    74  010E                     	;# 
    75  010F                     	;# 
    76  018C                     	;# 
    77  018D                     	;# 
    78  0000                     	;# 
    79  0001                     	;# 
    80  0002                     	;# 
    81  0003                     	;# 
    82  0004                     	;# 
    83  0005                     	;# 
    84  0006                     	;# 
    85  000A                     	;# 
    86  000B                     	;# 
    87  000C                     	;# 
    88  000D                     	;# 
    89  000E                     	;# 
    90  000E                     	;# 
    91  000F                     	;# 
    92  0010                     	;# 
    93  0011                     	;# 
    94  0012                     	;# 
    95  0013                     	;# 
    96  0014                     	;# 
    97  0015                     	;# 
    98  0015                     	;# 
    99  0016                     	;# 
   100  0017                     	;# 
   101  0018                     	;# 
   102  0019                     	;# 
   103  001A                     	;# 
   104  001E                     	;# 
   105  001F                     	;# 
   106  0081                     	;# 
   107  0085                     	;# 
   108  0086                     	;# 
   109  008C                     	;# 
   110  008D                     	;# 
   111  008E                     	;# 
   112  008F                     	;# 
   113  0090                     	;# 
   114  0092                     	;# 
   115  0093                     	;# 
   116  0094                     	;# 
   117  0098                     	;# 
   118  0099                     	;# 
   119  009B                     	;# 
   120  009C                     	;# 
   121  009D                     	;# 
   122  009E                     	;# 
   123  009F                     	;# 
   124  0105                     	;# 
   125  010C                     	;# 
   126  010D                     	;# 
   127  010E                     	;# 
   128  010F                     	;# 
   129  018C                     	;# 
   130  018D                     	;# 
   131  0000                     	;# 
   132  0001                     	;# 
   133  0002                     	;# 
   134  0003                     	;# 
   135  0004                     	;# 
   136  0005                     	;# 
   137  0006                     	;# 
   138  000A                     	;# 
   139  000B                     	;# 
   140  000C                     	;# 
   141  000D                     	;# 
   142  000E                     	;# 
   143  000E                     	;# 
   144  000F                     	;# 
   145  0010                     	;# 
   146  0011                     	;# 
   147  0012                     	;# 
   148  0013                     	;# 
   149  0014                     	;# 
   150  0015                     	;# 
   151  0015                     	;# 
   152  0016                     	;# 
   153  0017                     	;# 
   154  0018                     	;# 
   155  0019                     	;# 
   156  001A                     	;# 
   157  001E                     	;# 
   158  001F                     	;# 
   159  0081                     	;# 
   160  0085                     	;# 
   161  0086                     	;# 
   162  008C                     	;# 
   163  008D                     	;# 
   164  008E                     	;# 
   165  008F                     	;# 
   166  0090                     	;# 
   167  0092                     	;# 
   168  0093                     	;# 
   169  0094                     	;# 
   170  0098                     	;# 
   171  0099                     	;# 
   172  009B                     	;# 
   173  009C                     	;# 
   174  009D                     	;# 
   175  009E                     	;# 
   176  009F                     	;# 
   177  0105                     	;# 
   178  010C                     	;# 
   179  010D                     	;# 
   180  010E                     	;# 
   181  010F                     	;# 
   182  018C                     	;# 
   183  018D                     	;# 
   184                           
   185                           	psect	idataBANK0
   186  054F                     __pidataBANK0:	
   187                           
   188                           ;initializer for _rowaddr
   189  054F  3400               	retlw	0
   190  0550  3440               	retlw	64
   191  0551  3414               	retlw	20
   192  0552  3454               	retlw	84
   193                           
   194                           ;initializer for _lcdcolumns
   195  0553  3410               	retlw	16
   196                           
   197                           ;initializer for _lcdrows
   198  0554  3402               	retlw	2
   199                           
   200                           	psect	strings
   201  0002                     __pstrings:	
   202  0002                     stringtab:	
   203  0002                     __stringtab:	
   204  0002                     stringcode:	
   205                           ;	String table - string pointers are 1 byte each
   206                           
   207  0002                     stringdir:	
   208  0002  3000               	movlw	high stringdir
   209  0003  008A               	movwf	10
   210  0004  0804               	movf	4,w
   211  0005  0A84               	incf	4,f
   212  0006  0782               	addwf	2,f
   213  0007                     __stringbase:	
   214  0007  3400               	retlw	0
   215  0008                     __end_of__stringtab:	
   216  0008                     _arrowd:	
   217  0008  3404               	retlw	4
   218  0009  3404               	retlw	4
   219  000A  3404               	retlw	4
   220  000B  3404               	retlw	4
   221  000C  3415               	retlw	21
   222  000D  340E               	retlw	14
   223  000E  3404               	retlw	4
   224  000F  3400               	retlw	0
   225  0010                     __end_of_arrowd:	
   226  0010                     _arrowl:	
   227  0010  3402               	retlw	2
   228  0011  3404               	retlw	4
   229  0012  3408               	retlw	8
   230  0013  341F               	retlw	31
   231  0014  3408               	retlw	8
   232  0015  3404               	retlw	4
   233  0016  3402               	retlw	2
   234  0017  3400               	retlw	0
   235  0018                     __end_of_arrowl:	
   236  0018                     _arrowr:	
   237  0018  3408               	retlw	8
   238  0019  3404               	retlw	4
   239  001A  3402               	retlw	2
   240  001B  341F               	retlw	31
   241  001C  3402               	retlw	2
   242  001D  3404               	retlw	4
   243  001E  3408               	retlw	8
   244  001F  3400               	retlw	0
   245  0020                     __end_of_arrowr:	
   246  0020                     _arrowu:	
   247  0020  3404               	retlw	4
   248  0021  340E               	retlw	14
   249  0022  3415               	retlw	21
   250  0023  3404               	retlw	4
   251  0024  3404               	retlw	4
   252  0025  3404               	retlw	4
   253  0026  3404               	retlw	4
   254  0027  3400               	retlw	0
   255  0028                     __end_of_arrowu:	
   256  0028                     __stringdata:	
   257  0028                     STR_1:	
   258  0028  344C               	retlw	76	;'L'
   259  0029  3443               	retlw	67	;'C'
   260  002A  3444               	retlw	68	;'D'
   261  002B  3420               	retlw	32	;' '
   262  002C  3454               	retlw	84	;'T'
   263  002D  3465               	retlw	101	;'e'
   264  002E  3473               	retlw	115	;'s'
   265  002F  3474               	retlw	116	;'t'
   266  0030  3420               	retlw	32	;' '
   267  0031  3450               	retlw	80	;'P'
   268  0032  3472               	retlw	114	;'r'
   269  0033  346F               	retlw	111	;'o'
   270  0034  3467               	retlw	103	;'g'
   271  0035  3472               	retlw	114	;'r'
   272  0036  3461               	retlw	97	;'a'
   273  0037  346D               	retlw	109	;'m'
   274  0038  3400               	retlw	0
   275  0039                     STR_2:	
   276  0039  3448               	retlw	72	;'H'
   277  003A  3465               	retlw	101	;'e'
   278  003B  346C               	retlw	108	;'l'
   279  003C  346C               	retlw	108	;'l'
   280  003D  346F               	retlw	111	;'o'
   281  003E  3420               	retlw	32	;' '
   282  003F  3457               	retlw	87	;'W'
   283  0040  346F               	retlw	111	;'o'
   284  0041  3472               	retlw	114	;'r'
   285  0042  346C               	retlw	108	;'l'
   286  0043  3464               	retlw	100	;'d'
   287  0044  3400               	retlw	0
   288  0045                     __end_of__stringdata:	
   289                           
   290                           ; #config settings
   291  0000                     
   292                           	psect	nvBANK0
   293  002B                     __pnvBANK0:	
   294  002B                     _iomode:	
   295  002B                     	ds	1
   296  0005                     _PORTAbits	set	5
   297  0006                     _PORTBbits	set	6
   298  009B                     _ANSEL	set	155
   299  0085                     _TRISA	set	133
   300  0085                     _TRISAbits	set	133
   301  0086                     _TRISB	set	134
   302  0086                     _TRISBbits	set	134
   303                           
   304                           	psect	cinit
   305  07E5                     start_initialization:	
   306  07E5                     __initialization:	
   307                           
   308                           ; Clear objects allocated to BANK0
   309  07E5  01AC               	clrf	__pbssBANK0& (0+127)
   310                           
   311                           ; Initialize objects allocated to BANK0
   312  07E6  118A  254F  118A   	fcall	__pidataBANK0	;fetch initializer
   313  07E9  00A0               	movwf	__pdataBANK0& (0+127)
   314  07EA  118A  2550  118A   	fcall	__pidataBANK0+1	;fetch initializer
   315  07ED  00A1               	movwf	(__pdataBANK0+1)& (0+127)
   316  07EE  118A  2551  118A   	fcall	__pidataBANK0+2	;fetch initializer
   317  07F1  00A2               	movwf	(__pdataBANK0+2)& (0+127)
   318  07F2  118A  2552  118A   	fcall	__pidataBANK0+3	;fetch initializer
   319  07F5  00A3               	movwf	(__pdataBANK0+3)& (0+127)
   320  07F6  118A  2553  118A   	fcall	__pidataBANK0+4	;fetch initializer
   321  07F9  00A4               	movwf	(__pdataBANK0+4)& (0+127)
   322  07FA  118A  2554         	fcall	__pidataBANK0+5	;fetch initializer
   323  07FC  00A5               	movwf	(__pdataBANK0+5)& (0+127)
   324  07FD                     end_of_initialization:	
   325                           ;End of C runtime variable initialization code
   326                           
   327  07FD                     __end_of__initialization:	
   328  07FD  0183               	clrf	3
   329  07FE  118A  2E9D         	ljmp	_main	;jump to C main() function
   330                           
   331                           	psect	bssBANK0
   332  002C                     __pbssBANK0:	
   333  002C                     _dispctrl:	
   334  002C                     	ds	1
   335                           
   336                           	psect	dataBANK0
   337  0020                     __pdataBANK0:	
   338  0020                     _rowaddr:	
   339  0020                     	ds	4
   340  0024                     _lcdcolumns:	
   341  0024                     	ds	1
   342  0025                     _lcdrows:	
   343  0025                     	ds	1
   344                           
   345                           	psect	cstackCOMMON
   346  0070                     __pcstackCOMMON:	
   347  0070                     ?_lcd_clear:	
   348  0070                     ?_lcd_on:	
   349                           ; 0 bytes @ 0x0
   350                           
   351  0070                     ?_lcd_puts:	
   352                           ; 0 bytes @ 0x0
   353                           
   354  0070                     ?_lcd_iowrite4:	
   355                           ; 0 bytes @ 0x0
   356                           
   357  0070                     ?_lcd_ioset:	
   358                           ; 0 bytes @ 0x0
   359                           
   360  0070                     ?_lcd_iowrite8:	
   361                           ; 0 bytes @ 0x0
   362                           
   363  0070                     ??_lcd_iowrite8:	
   364                           ; 0 bytes @ 0x0
   365                           
   366  0070                     ?_main:	
   367                           ; 0 bytes @ 0x0
   368                           
   369  0070                     ?_lcd_ioinit:	
   370                           ; 0 bytes @ 0x0
   371                           
   372  0070                     lcd_ioinit@iodata:	
   373                           ; 1 bytes @ 0x0
   374                           
   375  0070                     lcd_ioset@out:	
   376                           ; 1 bytes @ 0x0
   377                           
   378  0070                     lcd_iowrite8@data:	
   379                           ; 1 bytes @ 0x0
   380                           
   381                           
   382                           ; 1 bytes @ 0x0
   383  0070                     	ds	1
   384  0071                     ??_lcd_ioset:	
   385  0071                     lcd_ioset@pin:	
   386                           ; 0 bytes @ 0x1
   387                           
   388                           
   389                           ; 1 bytes @ 0x1
   390  0071                     	ds	1
   391  0072                     ??_lcd_ioinit:	
   392  0072                     ??_lcd_iowrite4:	
   393                           ; 0 bytes @ 0x2
   394                           
   395                           
   396                           ; 0 bytes @ 0x2
   397  0072                     	ds	1
   398  0073                     lcd_ioinit@i:	
   399                           
   400                           ; 1 bytes @ 0x3
   401  0073                     	ds	1
   402  0074                     lcd_iowrite4@data:	
   403                           
   404                           ; 1 bytes @ 0x4
   405  0074                     	ds	1
   406  0075                     lcd_iowrite4@i:	
   407                           
   408                           ; 1 bytes @ 0x5
   409  0075                     	ds	1
   410  0076                     ?_lcd_send:	
   411  0076                     lcd_send@rs:	
   412                           ; 0 bytes @ 0x6
   413                           
   414                           
   415                           ; 1 bytes @ 0x6
   416  0076                     	ds	1
   417  0077                     ??_lcd_send:	
   418                           
   419                           ; 0 bytes @ 0x7
   420  0077                     	ds	1
   421  0078                     lcd_send@data:	
   422                           
   423                           ; 1 bytes @ 0x8
   424  0078                     	ds	1
   425  0079                     ?_lcd_create_char:	
   426  0079                     ??_lcd_clear:	
   427                           ; 0 bytes @ 0x9
   428                           
   429  0079                     ??_lcd_on:	
   430                           ; 0 bytes @ 0x9
   431                           
   432  0079                     ??_lcd_puts:	
   433                           ; 0 bytes @ 0x9
   434                           
   435  0079                     ?_lcd_goto:	
   436                           ; 0 bytes @ 0x9
   437                           
   438  0079                     ?_lcd_init:	
   439                           ; 0 bytes @ 0x9
   440                           
   441  0079                     lcd_init@cols:	
   442                           ; 1 bytes @ 0x9
   443                           
   444  0079                     lcd_goto@row:	
   445                           ; 1 bytes @ 0x9
   446                           
   447  0079                     lcd_create_char@chardata:	
   448                           ; 1 bytes @ 0x9
   449                           
   450                           
   451                           ; 1 bytes @ 0x9
   452  0079                     	ds	1
   453  007A                     ??_lcd_create_char:	
   454  007A                     ??_lcd_goto:	
   455                           ; 0 bytes @ 0xA
   456                           
   457  007A                     lcd_init@rows:	
   458                           ; 0 bytes @ 0xA
   459                           
   460  007A                     lcd_puts@string:	
   461                           ; 1 bytes @ 0xA
   462                           
   463                           
   464                           ; 1 bytes @ 0xA
   465  007A                     	ds	1
   466  007B                     ??_lcd_init:	
   467  007B                     lcd_goto@col:	
   468                           ; 0 bytes @ 0xB
   469                           
   470  007B                     lcd_create_char@charnum:	
   471                           ; 1 bytes @ 0xB
   472                           
   473                           
   474                           ; 1 bytes @ 0xB
   475  007B                     	ds	1
   476  007C                     lcd_create_char@i:	
   477                           
   478                           ; 1 bytes @ 0xC
   479  007C                     	ds	1
   480  007D                     lcd_init@iodata:	
   481                           
   482                           ; 1 bytes @ 0xD
   483  007D                     	ds	1
   484                           
   485                           	psect	cstackBANK0
   486  0026                     __pcstackBANK0:	
   487  0026                     ??_main:	
   488                           
   489                           ; 0 bytes @ 0x0
   490  0026                     	ds	3
   491  0029                     main@i:	
   492                           
   493                           ; 2 bytes @ 0x3
   494  0029                     	ds	2
   495                           
   496                           	psect	maintext
   497  069D                     __pmaintext:	
   498 ;;
   499 ;;Main: autosize = 0, tempsize = 3, incstack = 0, save=0
   500 ;;
   501 ;; *************** function _main *****************
   502 ;; Defined at:
   503 ;;		line 81 in file "main.c"
   504 ;; Parameters:    Size  Location     Type
   505 ;;		None
   506 ;; Auto vars:     Size  Location     Type
   507 ;;  i               2    3[BANK0 ] int 
   508 ;; Return value:  Size  Location     Type
   509 ;;		None               void
   510 ;; Registers used:
   511 ;;		wreg, fsr0l, fsr0h, status,2, status,0, btemp+1, pclath, cstack
   512 ;; Tracked objects:
   513 ;;		On entry : 17F/0
   514 ;;		On exit  : 0/0
   515 ;;		Unchanged: 0/0
   516 ;; Data sizes:     COMMON   BANK0   BANK1   BANK3   BANK2
   517 ;;      Params:         0       0       0       0       0
   518 ;;      Locals:         0       2       0       0       0
   519 ;;      Temps:          0       3       0       0       0
   520 ;;      Totals:         0       5       0       0       0
   521 ;;Total ram usage:        5 bytes
   522 ;; Hardware stack levels required when called:    4
   523 ;; This function calls:
   524 ;;		_lcd_init
   525 ;;		_lcd_create_char
   526 ;;		_lcd_clear
   527 ;;		_lcd_on
   528 ;;		_lcd_puts
   529 ;;		_lcd_goto
   530 ;;		_lcd_send
   531 ;; This function is called by:
   532 ;;		Startup code after reset
   533 ;; This function uses a non-reentrant model
   534 ;;
   535                           
   536                           
   537                           ;psect for function _main
   538  069D                     _main:	
   539                           
   540                           ;main.c: 82: int i;
   541                           ;main.c: 84: ANSEL = 0x00;
   542                           
   543                           ;incstack = 0
   544                           ; Regs used in _main: [wreg-fsr0h+status,2+status,0+btemp+1+pclath+cstack]
   545  069D  1683               	bsf	3,5	;RP0=1, select bank1
   546  069E  1303               	bcf	3,6	;RP1=0, select bank1
   547  069F  019B               	clrf	27	;volatile
   548                           
   549                           ;main.c: 85: TRISA = 0xFE;
   550  06A0  30FE               	movlw	254
   551  06A1  0085               	movwf	5	;volatile
   552                           
   553                           ;main.c: 86: TRISB = 0x7F;
   554  06A2  307F               	movlw	127
   555  06A3  0086               	movwf	6	;volatile
   556                           
   557                           ;main.c: 89: lcd_init(0, 20, 4);
   558  06A4  3014               	movlw	20
   559  06A5  1283               	bcf	3,5	;RP0=0, select bank0
   560  06A6  1303               	bcf	3,6	;RP1=0, select bank0
   561  06A7  00A6               	movwf	??_main
   562  06A8  0826               	movf	??_main,w
   563  06A9  00F9               	movwf	?_lcd_init
   564  06AA  3004               	movlw	4
   565  06AB  00A7               	movwf	??_main+1
   566  06AC  0827               	movf	??_main+1,w
   567  06AD  00FA               	movwf	?_lcd_init+1
   568  06AE  3000               	movlw	0
   569  06AF  118A  273E  118A   	fcall	_lcd_init
   570                           
   571                           ;main.c: 92: lcd_create_char(0, arrowr);
   572  06B2  3011               	movlw	(_arrowr-__stringbase)& (0+255)
   573  06B3  1283               	bcf	3,5	;RP0=0, select bank0
   574  06B4  1303               	bcf	3,6	;RP1=0, select bank0
   575  06B5  00A6               	movwf	??_main
   576  06B6  0826               	movf	??_main,w
   577  06B7  00F9               	movwf	?_lcd_create_char
   578  06B8  3000               	movlw	0
   579  06B9  118A  25C8  118A   	fcall	_lcd_create_char
   580                           
   581                           ;main.c: 93: lcd_create_char(1, arrowu);
   582  06BC  3019               	movlw	(_arrowu-__stringbase)& (0+255)
   583  06BD  1283               	bcf	3,5	;RP0=0, select bank0
   584  06BE  1303               	bcf	3,6	;RP1=0, select bank0
   585  06BF  00A6               	movwf	??_main
   586  06C0  0826               	movf	??_main,w
   587  06C1  00F9               	movwf	?_lcd_create_char
   588  06C2  3001               	movlw	1
   589  06C3  118A  25C8  118A   	fcall	_lcd_create_char
   590                           
   591                           ;main.c: 94: lcd_create_char(2, arrowl);
   592  06C6  3009               	movlw	(_arrowl-__stringbase)& (0+255)
   593  06C7  1283               	bcf	3,5	;RP0=0, select bank0
   594  06C8  1303               	bcf	3,6	;RP1=0, select bank0
   595  06C9  00A6               	movwf	??_main
   596  06CA  0826               	movf	??_main,w
   597  06CB  00F9               	movwf	?_lcd_create_char
   598  06CC  3002               	movlw	2
   599  06CD  118A  25C8  118A   	fcall	_lcd_create_char
   600                           
   601                           ;main.c: 95: lcd_create_char(3, arrowd);
   602  06D0  3001               	movlw	(_arrowd-__stringbase)& (0+255)
   603  06D1  1283               	bcf	3,5	;RP0=0, select bank0
   604  06D2  1303               	bcf	3,6	;RP1=0, select bank0
   605  06D3  00A6               	movwf	??_main
   606  06D4  0826               	movf	??_main,w
   607  06D5  00F9               	movwf	?_lcd_create_char
   608  06D6  3003               	movlw	3
   609  06D7  118A  25C8  118A   	fcall	_lcd_create_char
   610                           
   611                           ;main.c: 98: lcd_clear();
   612  06DA  118A  2555  118A   	fcall	_lcd_clear
   613                           
   614                           ;main.c: 100: lcd_on();
   615  06DD  118A  2564  118A   	fcall	_lcd_on
   616                           
   617                           ;main.c: 102: lcd_puts("LCD Test Program");
   618  06E0  3021               	movlw	(STR_1-__stringbase)& (0+255)
   619  06E1  118A  2573  118A   	fcall	_lcd_puts
   620                           
   621                           ;main.c: 104: lcd_goto(3, 1);
   622  06E4  01F9               	clrf	?_lcd_goto
   623  06E5  0AF9               	incf	?_lcd_goto,f
   624  06E6  3003               	movlw	3
   625  06E7  118A  25A8  118A   	fcall	_lcd_goto
   626                           
   627                           ;main.c: 106: lcd_puts("Hello World");
   628  06EA  3032               	movlw	(STR_2-__stringbase)& (0+255)
   629  06EB  118A  2573  118A   	fcall	_lcd_puts
   630                           
   631                           ;main.c: 108: lcd_goto(15, 1);
   632  06EE  01F9               	clrf	?_lcd_goto
   633  06EF  0AF9               	incf	?_lcd_goto,f
   634  06F0  300F               	movlw	15
   635  06F1  118A  25A8  118A   	fcall	_lcd_goto
   636  06F4                     l1107:	
   637                           ;main.c: 111: for (;;) {
   638                           
   639                           
   640                           ;main.c: 112: for (i = 0; i < 4; i++) {
   641  06F4  1283               	bcf	3,5	;RP0=0, select bank0
   642  06F5  1303               	bcf	3,6	;RP1=0, select bank0
   643  06F6  01A9               	clrf	main@i
   644  06F7  01AA               	clrf	main@i+1
   645  06F8                     L1:	
   646  06F8  082A               	movf	main@i+1,w
   647  06F9  3A80               	xorlw	128
   648  06FA  00FF               	movwf	127
   649  06FB  3080               	movlw	128
   650  06FC  027F               	subwf	127,w
   651  06FD  1D03               	skipz
   652  06FE  2F01               	goto	u355
   653  06FF  3004               	movlw	4
   654  0700  0229               	subwf	main@i,w
   655  0701                     u355:	
   656  0701  1803               	btfsc	3,0
   657  0702  2EF4               	goto	l1107
   658                           
   659                           ;main.c: 113: _delay((unsigned long)((250)*(1000000/1000.0)));
   660  0703  3002               	movlw	2
   661  0704  1283               	bcf	3,5	;RP0=0, select bank0
   662  0705  1303               	bcf	3,6	;RP1=0, select bank0
   663  0706  00A8               	movwf	??_main+2
   664  0707  3045               	movlw	69
   665  0708  00A7               	movwf	??_main+1
   666  0709  30A9               	movlw	169
   667  070A  00A6               	movwf	??_main
   668  070B                     u377:	
   669  070B  0BA6               	decfsz	??_main,f
   670  070C  2F0B               	goto	u377
   671  070D  0BA7               	decfsz	??_main+1,f
   672  070E  2F0B               	goto	u377
   673  070F  0BA8               	decfsz	??_main+2,f
   674  0710  2F0B               	goto	u377
   675  0711  2F12               	nop2
   676                           
   677                           ;main.c: 114: PORTBbits.RB7 = 0;
   678  0712  1283               	bcf	3,5	;RP0=0, select bank0
   679  0713  1303               	bcf	3,6	;RP1=0, select bank0
   680  0714  1386               	bcf	6,7	;volatile
   681                           
   682                           ;main.c: 115: _delay((unsigned long)((250)*(1000000/1000.0)));
   683  0715  3002               	movlw	2
   684  0716  00A8               	movwf	??_main+2
   685  0717  3045               	movlw	69
   686  0718  00A7               	movwf	??_main+1
   687  0719  30A9               	movlw	169
   688  071A  00A6               	movwf	??_main
   689  071B                     u387:	
   690  071B  0BA6               	decfsz	??_main,f
   691  071C  2F1B               	goto	u387
   692  071D  0BA7               	decfsz	??_main+1,f
   693  071E  2F1B               	goto	u387
   694  071F  0BA8               	decfsz	??_main+2,f
   695  0720  2F1B               	goto	u387
   696  0721  2F22               	nop2
   697                           
   698                           ;main.c: 116: PORTBbits.RB7 = 1;
   699  0722  1283               	bcf	3,5	;RP0=0, select bank0
   700  0723  1303               	bcf	3,6	;RP1=0, select bank0
   701  0724  1786               	bsf	6,7	;volatile
   702                           
   703                           ;main.c: 117: lcd_send( i, 1 );
   704  0725  01F6               	clrf	?_lcd_send
   705  0726  0AF6               	incf	?_lcd_send,f
   706  0727  0829               	movf	main@i,w
   707  0728  118A  25F1  118A   	fcall	_lcd_send
   708                           
   709                           ;main.c: 119: lcd_goto(50, 50);
   710  072B  3032               	movlw	50
   711  072C  1283               	bcf	3,5	;RP0=0, select bank0
   712  072D  1303               	bcf	3,6	;RP1=0, select bank0
   713  072E  00A6               	movwf	??_main
   714  072F  0826               	movf	??_main,w
   715  0730  00F9               	movwf	?_lcd_goto
   716  0731  3032               	movlw	50
   717  0732  118A  25A8  118A   	fcall	_lcd_goto
   718  0735  3001               	movlw	1
   719  0736  1283               	bcf	3,5	;RP0=0, select bank0
   720  0737  1303               	bcf	3,6	;RP1=0, select bank0
   721  0738  07A9               	addwf	main@i,f
   722  0739  1803               	skipnc
   723  073A  0AAA               	incf	main@i+1,f
   724  073B  3000               	movlw	0
   725  073C  07AA               	addwf	main@i+1,f
   726  073D  2EF8               	goto	L1
   727  073E                     __end_of_main:	
   728                           ;main.c: 120: }
   729                           ;main.c: 121: }
   730                           
   731                           
   732                           	psect	text1
   733  05A8                     __ptext1:	
   734 ;; *************** function _lcd_goto *****************
   735 ;; Defined at:
   736 ;;		line 145 in file "../LCD.c"
   737 ;; Parameters:    Size  Location     Type
   738 ;;  col             1    wreg     unsigned char 
   739 ;;  row             1    9[COMMON] unsigned char 
   740 ;; Auto vars:     Size  Location     Type
   741 ;;  col             1   11[COMMON] unsigned char 
   742 ;; Return value:  Size  Location     Type
   743 ;;		None               void
   744 ;; Registers used:
   745 ;;		wreg, fsr0l, fsr0h, status,2, status,0, pclath, cstack
   746 ;; Tracked objects:
   747 ;;		On entry : 0/0
   748 ;;		On exit  : 0/0
   749 ;;		Unchanged: 0/0
   750 ;; Data sizes:     COMMON   BANK0   BANK1   BANK3   BANK2
   751 ;;      Params:         1       0       0       0       0
   752 ;;      Locals:         1       0       0       0       0
   753 ;;      Temps:          1       0       0       0       0
   754 ;;      Totals:         3       0       0       0       0
   755 ;;Total ram usage:        3 bytes
   756 ;; Hardware stack levels used:    1
   757 ;; Hardware stack levels required when called:    3
   758 ;; This function calls:
   759 ;;		_lcd_send
   760 ;; This function is called by:
   761 ;;		_main
   762 ;; This function uses a non-reentrant model
   763 ;;
   764                           
   765                           
   766                           ;psect for function _lcd_goto
   767  05A8                     _lcd_goto:	
   768                           
   769                           ;incstack = 0
   770                           ; Regs used in _lcd_goto: [wreg-fsr0h+status,2+status,0+pclath+cstack]
   771                           ;lcd_goto@col stored from wreg
   772  05A8  00FB               	movwf	lcd_goto@col
   773                           
   774                           ;LCD.c: 147: if (row >= lcdrows)
   775  05A9  1283               	bcf	3,5	;RP0=0, select bank0
   776  05AA  1303               	bcf	3,6	;RP1=0, select bank0
   777  05AB  0825               	movf	_lcdrows,w
   778  05AC  0279               	subwf	lcd_goto@row,w
   779  05AD  1C03               	skipc
   780  05AE  2DB4               	goto	l1073
   781                           
   782                           ;LCD.c: 148: row = lcdrows - 1;
   783  05AF  0825               	movf	_lcdrows,w
   784  05B0  3EFF               	addlw	255
   785  05B1  00FA               	movwf	??_lcd_goto
   786  05B2  087A               	movf	??_lcd_goto,w
   787  05B3  00F9               	movwf	lcd_goto@row
   788  05B4                     l1073:	
   789                           
   790                           ;LCD.c: 149: if (col >= lcdcolumns)
   791  05B4  0824               	movf	_lcdcolumns,w
   792  05B5  027B               	subwf	lcd_goto@col,w
   793  05B6  1C03               	skipc
   794  05B7  2DBD               	goto	l1077
   795                           
   796                           ;LCD.c: 150: col = lcdcolumns - 1;
   797  05B8  0824               	movf	_lcdcolumns,w
   798  05B9  3EFF               	addlw	255
   799  05BA  00FA               	movwf	??_lcd_goto
   800  05BB  087A               	movf	??_lcd_goto,w
   801  05BC  00FB               	movwf	lcd_goto@col
   802  05BD                     l1077:	
   803                           
   804                           ;LCD.c: 152: lcd_send( E_SET_DDRAM_ADDR | (col + rowaddr[ row ]), 0 );
   805  05BD  01F6               	clrf	?_lcd_send
   806  05BE  0879               	movf	lcd_goto@row,w
   807  05BF  3E20               	addlw	_rowaddr& (0+255)
   808  05C0  0084               	movwf	4
   809  05C1  087B               	movf	lcd_goto@col,w
   810  05C2  1383               	bcf	3,7	;select IRP bank0
   811  05C3  0700               	addwf	0,w
   812  05C4  3880               	iorlw	128
   813  05C5  118A  25F1         	fcall	_lcd_send
   814  05C7  0008               	return
   815  05C8                     __end_of_lcd_goto:	
   816                           
   817                           	psect	text2
   818  0573                     __ptext2:	
   819 ;; *************** function _lcd_puts *****************
   820 ;; Defined at:
   821 ;;		line 174 in file "../LCD.c"
   822 ;; Parameters:    Size  Location     Type
   823 ;;  string          1    wreg     PTR const unsigned char 
   824 ;;		 -> STR_2(12), STR_1(17), 
   825 ;; Auto vars:     Size  Location     Type
   826 ;;  string          1   10[COMMON] PTR const unsigned char 
   827 ;;		 -> STR_2(12), STR_1(17), 
   828 ;; Return value:  Size  Location     Type
   829 ;;		None               void
   830 ;; Registers used:
   831 ;;		wreg, fsr0l, fsr0h, status,2, status,0, pclath, cstack
   832 ;; Tracked objects:
   833 ;;		On entry : 0/0
   834 ;;		On exit  : 0/0
   835 ;;		Unchanged: 0/0
   836 ;; Data sizes:     COMMON   BANK0   BANK1   BANK3   BANK2
   837 ;;      Params:         0       0       0       0       0
   838 ;;      Locals:         1       0       0       0       0
   839 ;;      Temps:          1       0       0       0       0
   840 ;;      Totals:         2       0       0       0       0
   841 ;;Total ram usage:        2 bytes
   842 ;; Hardware stack levels used:    1
   843 ;; Hardware stack levels required when called:    3
   844 ;; This function calls:
   845 ;;		_lcd_send
   846 ;; This function is called by:
   847 ;;		_main
   848 ;; This function uses a non-reentrant model
   849 ;;
   850                           
   851                           
   852                           ;psect for function _lcd_puts
   853  0573                     _lcd_puts:	
   854                           
   855                           ;incstack = 0
   856                           ; Regs used in _lcd_puts: [wreg-fsr0h+status,2+status,0+pclath+cstack]
   857                           ;lcd_puts@string stored from wreg
   858  0573  00FA               	movwf	lcd_puts@string
   859  0574                     l1067:	
   860                           ;LCD.c: 175: while (*string != '\0')
   861                           
   862  0574  087A               	movf	lcd_puts@string,w
   863  0575  0084               	movwf	4
   864  0576  118A  2002  118A   	fcall	stringdir
   865  0579  3800               	iorlw	0
   866  057A  1903               	btfsc	3,2
   867  057B  0008               	return
   868                           
   869                           ;LCD.c: 176: lcd_send( *string++, 1 );
   870  057C  01F6               	clrf	?_lcd_send
   871  057D  0AF6               	incf	?_lcd_send,f
   872  057E  087A               	movf	lcd_puts@string,w
   873  057F  0084               	movwf	4
   874  0580  118A  2002  118A   	fcall	stringdir
   875  0583  118A  25F1  118A   	fcall	_lcd_send
   876  0586  3001               	movlw	1
   877  0587  00F9               	movwf	??_lcd_puts
   878  0588  0879               	movf	??_lcd_puts,w
   879  0589  07FA               	addwf	lcd_puts@string,f
   880  058A  2D74               	goto	l1067
   881  058B                     __end_of_lcd_puts:	
   882                           
   883                           	psect	text3
   884  0564                     __ptext3:	
   885 ;; *************** function _lcd_on *****************
   886 ;; Defined at:
   887 ;;		line 87 in file "../LCD.c"
   888 ;; Parameters:    Size  Location     Type
   889 ;;		None
   890 ;; Auto vars:     Size  Location     Type
   891 ;;		None
   892 ;; Return value:  Size  Location     Type
   893 ;;		None               void
   894 ;; Registers used:
   895 ;;		wreg, fsr0l, fsr0h, status,2, status,0, pclath, cstack
   896 ;; Tracked objects:
   897 ;;		On entry : 0/0
   898 ;;		On exit  : 0/0
   899 ;;		Unchanged: 0/0
   900 ;; Data sizes:     COMMON   BANK0   BANK1   BANK3   BANK2
   901 ;;      Params:         0       0       0       0       0
   902 ;;      Locals:         0       0       0       0       0
   903 ;;      Temps:          1       0       0       0       0
   904 ;;      Totals:         1       0       0       0       0
   905 ;;Total ram usage:        1 bytes
   906 ;; Hardware stack levels used:    1
   907 ;; Hardware stack levels required when called:    3
   908 ;; This function calls:
   909 ;;		_lcd_send
   910 ;; This function is called by:
   911 ;;		_main
   912 ;; This function uses a non-reentrant model
   913 ;;
   914                           
   915                           
   916                           ;psect for function _lcd_on
   917  0564                     _lcd_on:	
   918                           
   919                           ;LCD.c: 88: dispctrl |= (1<<2);
   920                           
   921                           ;incstack = 0
   922                           ; Regs used in _lcd_on: [wreg-fsr0h+status,2+status,0+pclath+cstack]
   923  0564  1283               	bcf	3,5	;RP0=0, select bank0
   924  0565  1303               	bcf	3,6	;RP1=0, select bank0
   925  0566  152C               	bsf	_dispctrl,2
   926                           
   927                           ;LCD.c: 89: lcd_send( E_DISPLAY_ON_OFF_CTRL | dispctrl, 0 );
   928  0567  01F6               	clrf	?_lcd_send
   929  0568  082C               	movf	_dispctrl,w
   930  0569  3808               	iorlw	8
   931  056A  118A  25F1  118A   	fcall	_lcd_send
   932                           
   933                           ;LCD.c: 90: _delay((unsigned long)((50)*(1000000/1000000.0)));
   934  056D  3010               	movlw	16
   935  056E  00F9               	movwf	??_lcd_on
   936  056F                     u397:	
   937  056F  0BF9               	decfsz	??_lcd_on,f
   938  0570  2D6F               	goto	u397
   939  0571  0000               	nop
   940  0572  0008               	return
   941  0573                     __end_of_lcd_on:	
   942                           
   943                           	psect	text4
   944  0555                     __ptext4:	
   945 ;; *************** function _lcd_clear *****************
   946 ;; Defined at:
   947 ;;		line 75 in file "../LCD.c"
   948 ;; Parameters:    Size  Location     Type
   949 ;;		None
   950 ;; Auto vars:     Size  Location     Type
   951 ;;		None
   952 ;; Return value:  Size  Location     Type
   953 ;;		None               void
   954 ;; Registers used:
   955 ;;		wreg, fsr0l, fsr0h, status,2, status,0, pclath, cstack
   956 ;; Tracked objects:
   957 ;;		On entry : 0/0
   958 ;;		On exit  : 0/0
   959 ;;		Unchanged: 0/0
   960 ;; Data sizes:     COMMON   BANK0   BANK1   BANK3   BANK2
   961 ;;      Params:         0       0       0       0       0
   962 ;;      Locals:         0       0       0       0       0
   963 ;;      Temps:          2       0       0       0       0
   964 ;;      Totals:         2       0       0       0       0
   965 ;;Total ram usage:        2 bytes
   966 ;; Hardware stack levels used:    1
   967 ;; Hardware stack levels required when called:    3
   968 ;; This function calls:
   969 ;;		_lcd_send
   970 ;; This function is called by:
   971 ;;		_main
   972 ;; This function uses a non-reentrant model
   973 ;;
   974                           
   975                           
   976                           ;psect for function _lcd_clear
   977  0555                     _lcd_clear:	
   978                           
   979                           ;LCD.c: 76: lcd_send( E_CLEAR_DISPLAY, 0 );
   980                           
   981                           ;incstack = 0
   982                           ; Regs used in _lcd_clear: [wreg-fsr0h+status,2+status,0+pclath+cstack]
   983  0555  01F6               	clrf	?_lcd_send
   984  0556  3001               	movlw	1
   985  0557  118A  25F1  118A   	fcall	_lcd_send
   986                           
   987                           ;LCD.c: 77: _delay((unsigned long)((2)*(1000000/1000.0)));
   988  055A  3003               	movlw	3
   989  055B  00FA               	movwf	??_lcd_clear+1
   990  055C  3097               	movlw	151
   991  055D  00F9               	movwf	??_lcd_clear
   992  055E                     u407:	
   993  055E  0BF9               	decfsz	??_lcd_clear,f
   994  055F  2D5E               	goto	u407
   995  0560  0BFA               	decfsz	??_lcd_clear+1,f
   996  0561  2D5E               	goto	u407
   997  0562  2D63               	nop2
   998  0563  0008               	return
   999  0564                     __end_of_lcd_clear:	
  1000                           
  1001                           	psect	text5
  1002  05C8                     __ptext5:	
  1003 ;; *************** function _lcd_create_char *****************
  1004 ;; Defined at:
  1005 ;;		line 180 in file "../LCD.c"
  1006 ;; Parameters:    Size  Location     Type
  1007 ;;  charnum         1    wreg     unsigned char 
  1008 ;;  chardata        1    9[COMMON] PTR const unsigned char 
  1009 ;;		 -> arrowd(8), arrowl(8), arrowu(8), arrowr(8), 
  1010 ;; Auto vars:     Size  Location     Type
  1011 ;;  charnum         1   11[COMMON] unsigned char 
  1012 ;;  i               1   12[COMMON] unsigned char 
  1013 ;; Return value:  Size  Location     Type
  1014 ;;		None               void
  1015 ;; Registers used:
  1016 ;;		wreg, fsr0l, fsr0h, status,2, status,0, pclath, cstack
  1017 ;; Tracked objects:
  1018 ;;		On entry : 0/0
  1019 ;;		On exit  : 0/0
  1020 ;;		Unchanged: 0/0
  1021 ;; Data sizes:     COMMON   BANK0   BANK1   BANK3   BANK2
  1022 ;;      Params:         1       0       0       0       0
  1023 ;;      Locals:         2       0       0       0       0
  1024 ;;      Temps:          1       0       0       0       0
  1025 ;;      Totals:         4       0       0       0       0
  1026 ;;Total ram usage:        4 bytes
  1027 ;; Hardware stack levels used:    1
  1028 ;; Hardware stack levels required when called:    3
  1029 ;; This function calls:
  1030 ;;		_lcd_send
  1031 ;; This function is called by:
  1032 ;;		_main
  1033 ;; This function uses a non-reentrant model
  1034 ;;
  1035                           
  1036                           
  1037                           ;psect for function _lcd_create_char
  1038  05C8                     _lcd_create_char:	
  1039                           
  1040                           ;incstack = 0
  1041                           ; Regs used in _lcd_create_char: [wreg-fsr0h+status,2+status,0+pclath+cstack]
  1042                           ;lcd_create_char@charnum stored from wreg
  1043  05C8  00FB               	movwf	lcd_create_char@charnum
  1044                           
  1045                           ;LCD.c: 181: uint8_t i;
  1046                           ;LCD.c: 182: charnum &= 0x07;
  1047  05C9  3007               	movlw	7
  1048  05CA  00FA               	movwf	??_lcd_create_char
  1049  05CB  087A               	movf	??_lcd_create_char,w
  1050  05CC  05FB               	andwf	lcd_create_char@charnum,f
  1051                           
  1052                           ;LCD.c: 183: lcd_send( E_SET_CGRAM_ADDR | (charnum << 3), 0 );
  1053  05CD  01F6               	clrf	?_lcd_send
  1054  05CE  087B               	movf	lcd_create_char@charnum,w
  1055  05CF  00FA               	movwf	??_lcd_create_char
  1056  05D0  3002               	movlw	2
  1057  05D1                     u295:	
  1058  05D1  1003               	clrc
  1059  05D2  0DFA               	rlf	??_lcd_create_char,f
  1060  05D3  3EFF               	addlw	-1
  1061  05D4  1D03               	skipz
  1062  05D5  2DD1               	goto	u295
  1063  05D6  1003               	clrc
  1064  05D7  0D7A               	rlf	??_lcd_create_char,w
  1065  05D8  3840               	iorlw	64
  1066  05D9  118A  25F1  118A   	fcall	_lcd_send
  1067                           
  1068                           ;LCD.c: 184: for (i = 0; i < 8; i++)
  1069  05DC  01FC               	clrf	lcd_create_char@i
  1070  05DD                     L2:	
  1071  05DD  3008               	movlw	8
  1072  05DE  027C               	subwf	lcd_create_char@i,w
  1073  05DF  1803               	btfsc	3,0
  1074  05E0  0008               	return
  1075                           
  1076                           ;LCD.c: 185: lcd_send( chardata[i], 1 );
  1077  05E1  01F6               	clrf	?_lcd_send
  1078  05E2  0AF6               	incf	?_lcd_send,f
  1079  05E3  087C               	movf	lcd_create_char@i,w
  1080  05E4  0779               	addwf	lcd_create_char@chardata,w
  1081  05E5  0084               	movwf	4
  1082  05E6  118A  2002  118A   	fcall	stringdir
  1083  05E9  118A  25F1  118A   	fcall	_lcd_send
  1084  05EC  3001               	movlw	1
  1085  05ED  00FA               	movwf	??_lcd_create_char
  1086  05EE  087A               	movf	??_lcd_create_char,w
  1087  05EF  07FC               	addwf	lcd_create_char@i,f
  1088  05F0  2DDD               	goto	L2
  1089  05F1                     __end_of_lcd_create_char:	
  1090                           
  1091                           	psect	text6
  1092  073E                     __ptext6:	
  1093 ;; *************** function _lcd_init *****************
  1094 ;; Defined at:
  1095 ;;		line 29 in file "../LCD.c"
  1096 ;; Parameters:    Size  Location     Type
  1097 ;;  iodata          1    wreg     PTR void 
  1098 ;;		 -> NULL(0), 
  1099 ;;  cols            1    9[COMMON] unsigned char 
  1100 ;;  rows            1   10[COMMON] unsigned char 
  1101 ;; Auto vars:     Size  Location     Type
  1102 ;;  iodata          1   13[COMMON] PTR void 
  1103 ;;		 -> NULL(0), 
  1104 ;; Return value:  Size  Location     Type
  1105 ;;                  1    wreg      unsigned char 
  1106 ;; Registers used:
  1107 ;;		wreg, fsr0l, fsr0h, status,2, status,0, pclath, cstack
  1108 ;; Tracked objects:
  1109 ;;		On entry : 0/0
  1110 ;;		On exit  : 0/0
  1111 ;;		Unchanged: 0/0
  1112 ;; Data sizes:     COMMON   BANK0   BANK1   BANK3   BANK2
  1113 ;;      Params:         2       0       0       0       0
  1114 ;;      Locals:         1       0       0       0       0
  1115 ;;      Temps:          2       0       0       0       0
  1116 ;;      Totals:         5       0       0       0       0
  1117 ;;Total ram usage:        5 bytes
  1118 ;; Hardware stack levels used:    1
  1119 ;; Hardware stack levels required when called:    3
  1120 ;; This function calls:
  1121 ;;		_lcd_send
  1122 ;;		_lcd_ioinit
  1123 ;;		_lcd_iowrite4
  1124 ;; This function is called by:
  1125 ;;		_main
  1126 ;; This function uses a non-reentrant model
  1127 ;;
  1128                           
  1129                           
  1130                           ;psect for function _lcd_init
  1131  073E                     _lcd_init:	
  1132                           
  1133                           ;incstack = 0
  1134                           ; Regs used in _lcd_init: [wreg-fsr0h+status,2+status,0+pclath+cstack]
  1135                           ;lcd_init@iodata stored from wreg
  1136  073E  00FD               	movwf	lcd_init@iodata
  1137                           
  1138                           ;LCD.c: 31: iomode = lcd_ioinit(iodata);
  1139  073F  087D               	movf	lcd_init@iodata,w
  1140  0740  118A  258B  118A   	fcall	_lcd_ioinit
  1141  0743  00FB               	movwf	??_lcd_init
  1142  0744  087B               	movf	??_lcd_init,w
  1143  0745  1283               	bcf	3,5	;RP0=0, select bank0
  1144  0746  1303               	bcf	3,6	;RP1=0, select bank0
  1145  0747  00AB               	movwf	_iomode
  1146                           
  1147                           ;LCD.c: 32: lcdrows = rows;
  1148  0748  087A               	movf	lcd_init@rows,w
  1149  0749  00FB               	movwf	??_lcd_init
  1150  074A  087B               	movf	??_lcd_init,w
  1151  074B  00A5               	movwf	_lcdrows
  1152                           
  1153                           ;LCD.c: 33: lcdcolumns = cols;
  1154  074C  0879               	movf	lcd_init@cols,w
  1155  074D  00FB               	movwf	??_lcd_init
  1156  074E  087B               	movf	??_lcd_init,w
  1157  074F  00A4               	movwf	_lcdcolumns
  1158                           
  1159                           ;LCD.c: 36: _delay((unsigned long)((100)*(1000000/1000.0)));
  1160  0750  3082               	movlw	130
  1161  0751  00FC               	movwf	??_lcd_init+1
  1162  0752  30DD               	movlw	221
  1163  0753  00FB               	movwf	??_lcd_init
  1164  0754                     u417:	
  1165  0754  0BFB               	decfsz	??_lcd_init,f
  1166  0755  2F54               	goto	u417
  1167  0756  0BFC               	decfsz	??_lcd_init+1,f
  1168  0757  2F54               	goto	u417
  1169  0758  2F59               	nop2
  1170                           
  1171                           ;LCD.c: 39: if (iomode == 4) {
  1172  0759  1283               	bcf	3,5	;RP0=0, select bank0
  1173  075A  1303               	bcf	3,6	;RP1=0, select bank0
  1174  075B  082B               	movf	_iomode,w
  1175  075C  3A04               	xorlw	4
  1176  075D  1D03               	skipz
  1177  075E  2F91               	goto	l1011
  1178                           
  1179                           ;LCD.c: 42: lcd_iowrite4(0x03);
  1180  075F  3003               	movlw	3
  1181  0760  118A  261C  118A   	fcall	_lcd_iowrite4
  1182                           
  1183                           ;LCD.c: 43: _delay((unsigned long)((5)*(1000000/1000.0)));
  1184  0763  3007               	movlw	7
  1185  0764  00FC               	movwf	??_lcd_init+1
  1186  0765  307D               	movlw	125
  1187  0766  00FB               	movwf	??_lcd_init
  1188  0767                     u427:	
  1189  0767  0BFB               	decfsz	??_lcd_init,f
  1190  0768  2F67               	goto	u427
  1191  0769  0BFC               	decfsz	??_lcd_init+1,f
  1192  076A  2F67               	goto	u427
  1193                           
  1194                           ;LCD.c: 44: lcd_iowrite4(0x03);
  1195  076B  3003               	movlw	3
  1196  076C  118A  261C  118A   	fcall	_lcd_iowrite4
  1197                           
  1198                           ;LCD.c: 45: _delay((unsigned long)((120)*(1000000/1000000.0)));
  1199  076F  3027               	movlw	39
  1200  0770  00FB               	movwf	??_lcd_init
  1201  0771                     u437:	
  1202  0771  0BFB               	decfsz	??_lcd_init,f
  1203  0772  2F71               	goto	u437
  1204  0773  2F74               	nop2	;nop
  1205                           
  1206                           ;LCD.c: 46: lcd_iowrite4(0x03);
  1207  0774  3003               	movlw	3
  1208  0775  118A  261C  118A   	fcall	_lcd_iowrite4
  1209                           
  1210                           ;LCD.c: 47: _delay((unsigned long)((120)*(1000000/1000000.0)));
  1211  0778  3027               	movlw	39
  1212  0779  00FB               	movwf	??_lcd_init
  1213  077A                     u447:	
  1214  077A  0BFB               	decfsz	??_lcd_init,f
  1215  077B  2F7A               	goto	u447
  1216  077C  2F7D               	nop2	;nop
  1217                           
  1218                           ;LCD.c: 48: lcd_iowrite4(0x02);
  1219  077D  3002               	movlw	2
  1220  077E  118A  261C  118A   	fcall	_lcd_iowrite4
  1221                           
  1222                           ;LCD.c: 49: _delay((unsigned long)((120)*(1000000/1000000.0)));
  1223  0781  3027               	movlw	39
  1224  0782  00FB               	movwf	??_lcd_init
  1225  0783                     u457:	
  1226  0783  0BFB               	decfsz	??_lcd_init,f
  1227  0784  2F83               	goto	u457
  1228  0785  2F86               	nop2	;nop
  1229                           
  1230                           ;LCD.c: 50: lcd_send( E_FUNCTION_SET | 0 | (1<<3) | (1<<2), 0 );
  1231  0786  01F6               	clrf	?_lcd_send
  1232  0787  302C               	movlw	44
  1233  0788  118A  25F1  118A   	fcall	_lcd_send
  1234                           
  1235                           ;LCD.c: 51: _delay((unsigned long)((50)*(1000000/1000000.0)));
  1236  078B  3010               	movlw	16
  1237  078C  00FB               	movwf	??_lcd_init
  1238  078D                     u467:	
  1239  078D  0BFB               	decfsz	??_lcd_init,f
  1240  078E  2F8D               	goto	u467
  1241  078F  0000               	nop
  1242                           
  1243                           ;LCD.c: 52: } else if (iomode == 8) {
  1244  0790  2FC2               	goto	l1025
  1245  0791                     l1011:	
  1246  0791  1283               	bcf	3,5	;RP0=0, select bank0
  1247  0792  1303               	bcf	3,6	;RP1=0, select bank0
  1248  0793  082B               	movf	_iomode,w
  1249  0794  3A08               	xorlw	8
  1250  0795  1D03               	skipz
  1251  0796  2FC2               	goto	l1025
  1252                           
  1253                           ;LCD.c: 54: lcd_send( E_FUNCTION_SET, 0 );
  1254  0797  01F6               	clrf	?_lcd_send
  1255  0798  3020               	movlw	32
  1256  0799  118A  25F1  118A   	fcall	_lcd_send
  1257                           
  1258                           ;LCD.c: 55: _delay((unsigned long)((5)*(1000000/1000.0)));
  1259  079C  3007               	movlw	7
  1260  079D  00FC               	movwf	??_lcd_init+1
  1261  079E  307D               	movlw	125
  1262  079F  00FB               	movwf	??_lcd_init
  1263  07A0                     u477:	
  1264  07A0  0BFB               	decfsz	??_lcd_init,f
  1265  07A1  2FA0               	goto	u477
  1266  07A2  0BFC               	decfsz	??_lcd_init+1,f
  1267  07A3  2FA0               	goto	u477
  1268                           
  1269                           ;LCD.c: 56: lcd_send( E_FUNCTION_SET, 0 );
  1270  07A4  01F6               	clrf	?_lcd_send
  1271  07A5  3020               	movlw	32
  1272  07A6  118A  25F1  118A   	fcall	_lcd_send
  1273                           
  1274                           ;LCD.c: 57: _delay((unsigned long)((120)*(1000000/1000000.0)));
  1275  07A9  3027               	movlw	39
  1276  07AA  00FB               	movwf	??_lcd_init
  1277  07AB                     u487:	
  1278  07AB  0BFB               	decfsz	??_lcd_init,f
  1279  07AC  2FAB               	goto	u487
  1280  07AD  2FAE               	nop2	;nop
  1281                           
  1282                           ;LCD.c: 58: lcd_send( E_FUNCTION_SET, 0 );
  1283  07AE  01F6               	clrf	?_lcd_send
  1284  07AF  3020               	movlw	32
  1285  07B0  118A  25F1  118A   	fcall	_lcd_send
  1286                           
  1287                           ;LCD.c: 59: _delay((unsigned long)((120)*(1000000/1000000.0)));
  1288  07B3  3027               	movlw	39
  1289  07B4  00FB               	movwf	??_lcd_init
  1290  07B5                     u497:	
  1291  07B5  0BFB               	decfsz	??_lcd_init,f
  1292  07B6  2FB5               	goto	u497
  1293  07B7  2FB8               	nop2	;nop
  1294                           
  1295                           ;LCD.c: 60: lcd_send( E_FUNCTION_SET | (1<<4) | (1<<3) | (1<<2), 0 );
  1296  07B8  01F6               	clrf	?_lcd_send
  1297  07B9  303C               	movlw	60
  1298  07BA  118A  25F1  118A   	fcall	_lcd_send
  1299                           
  1300                           ;LCD.c: 61: _delay((unsigned long)((50)*(1000000/1000000.0)));
  1301  07BD  3010               	movlw	16
  1302  07BE  00FB               	movwf	??_lcd_init
  1303  07BF                     u507:	
  1304  07BF  0BFB               	decfsz	??_lcd_init,f
  1305  07C0  2FBF               	goto	u507
  1306  07C1  0000               	nop
  1307  07C2                     l1025:	
  1308                           
  1309                           ;LCD.c: 62: }
  1310                           ;LCD.c: 64: lcd_send( E_DISPLAY_ON_OFF_CTRL | 0, 0 );
  1311  07C2  01F6               	clrf	?_lcd_send
  1312  07C3  3008               	movlw	8
  1313  07C4  118A  25F1  118A   	fcall	_lcd_send
  1314                           
  1315                           ;LCD.c: 65: _delay((unsigned long)((50)*(1000000/1000000.0)));
  1316  07C7  3010               	movlw	16
  1317  07C8  00FB               	movwf	??_lcd_init
  1318  07C9                     u517:	
  1319  07C9  0BFB               	decfsz	??_lcd_init,f
  1320  07CA  2FC9               	goto	u517
  1321  07CB  0000               	nop
  1322                           
  1323                           ;LCD.c: 66: lcd_send( E_CLEAR_DISPLAY, 0 );
  1324  07CC  01F6               	clrf	?_lcd_send
  1325  07CD  3001               	movlw	1
  1326  07CE  118A  25F1  118A   	fcall	_lcd_send
  1327                           
  1328                           ;LCD.c: 67: _delay((unsigned long)((2)*(1000000/1000.0)));
  1329  07D1  3003               	movlw	3
  1330  07D2  00FC               	movwf	??_lcd_init+1
  1331  07D3  3097               	movlw	151
  1332  07D4  00FB               	movwf	??_lcd_init
  1333  07D5                     u527:	
  1334  07D5  0BFB               	decfsz	??_lcd_init,f
  1335  07D6  2FD5               	goto	u527
  1336  07D7  0BFC               	decfsz	??_lcd_init+1,f
  1337  07D8  2FD5               	goto	u527
  1338  07D9  2FDA               	nop2
  1339                           
  1340                           ;LCD.c: 68: lcd_send( E_ENTRY_MODE_SET | 0 | (1<<1), 0 );
  1341  07DA  01F6               	clrf	?_lcd_send
  1342  07DB  3006               	movlw	6
  1343  07DC  118A  25F1  118A   	fcall	_lcd_send
  1344                           
  1345                           ;LCD.c: 69: _delay((unsigned long)((50)*(1000000/1000000.0)));
  1346  07DF  3010               	movlw	16
  1347  07E0  00FB               	movwf	??_lcd_init
  1348  07E1                     u537:	
  1349  07E1  0BFB               	decfsz	??_lcd_init,f
  1350  07E2  2FE1               	goto	u537
  1351  07E3  0000               	nop
  1352  07E4  0008               	return
  1353  07E5                     __end_of_lcd_init:	
  1354                           ;LCD.c: 71: return 1;
  1355                           ;	Return value of _lcd_init is never used
  1356                           
  1357                           
  1358                           	psect	text7
  1359  058B                     __ptext7:	
  1360 ;; *************** function _lcd_ioinit *****************
  1361 ;; Defined at:
  1362 ;;		line 66 in file "../LCD-PIC16.c"
  1363 ;; Parameters:    Size  Location     Type
  1364 ;;  iodata          1    wreg     PTR void 
  1365 ;;		 -> NULL(0), 
  1366 ;; Auto vars:     Size  Location     Type
  1367 ;;  iodata          1    0[COMMON] PTR void 
  1368 ;;		 -> NULL(0), 
  1369 ;;  i               1    3[COMMON] unsigned char 
  1370 ;; Return value:  Size  Location     Type
  1371 ;;                  1    wreg      unsigned char 
  1372 ;; Registers used:
  1373 ;;		wreg, fsr0l, fsr0h, status,2, status,0, pclath, cstack
  1374 ;; Tracked objects:
  1375 ;;		On entry : 0/0
  1376 ;;		On exit  : 0/0
  1377 ;;		Unchanged: 0/0
  1378 ;; Data sizes:     COMMON   BANK0   BANK1   BANK3   BANK2
  1379 ;;      Params:         0       0       0       0       0
  1380 ;;      Locals:         1       0       0       0       0
  1381 ;;      Temps:          1       0       0       0       0
  1382 ;;      Totals:         2       0       0       0       0
  1383 ;;Total ram usage:        2 bytes
  1384 ;; Hardware stack levels used:    1
  1385 ;; Hardware stack levels required when called:    1
  1386 ;; This function calls:
  1387 ;;		_lcd_ioset
  1388 ;; This function is called by:
  1389 ;;		_lcd_init
  1390 ;; This function uses a non-reentrant model
  1391 ;;
  1392                           
  1393                           
  1394                           ;psect for function _lcd_ioinit
  1395  058B                     _lcd_ioinit:	
  1396                           
  1397                           ;LCD-PIC16.c: 67: uint8_t i = 0;
  1398                           
  1399                           ;incstack = 0
  1400                           ; Regs used in _lcd_ioinit: [wreg-fsr0h+status,2+status,0+pclath+cstack]
  1401  058B  01F3               	clrf	lcd_ioinit@i
  1402                           
  1403                           ;LCD-PIC16.c: 70: TRISBbits.TRISB0 = 0;
  1404  058C  1683               	bsf	3,5	;RP0=1, select bank1
  1405  058D  1303               	bcf	3,6	;RP1=0, select bank1
  1406  058E  1006               	bcf	6,0	;volatile
  1407                           
  1408                           ;LCD-PIC16.c: 71: TRISBbits.TRISB1 = 0;
  1409  058F  1086               	bcf	6,1	;volatile
  1410                           
  1411                           ;LCD-PIC16.c: 77: TRISAbits.TRISA0 = 0;
  1412  0590  1005               	bcf	5,0	;volatile
  1413                           
  1414                           ;LCD-PIC16.c: 78: TRISAbits.TRISA1 = 0;
  1415  0591  1085               	bcf	5,1	;volatile
  1416                           
  1417                           ;LCD-PIC16.c: 79: TRISAbits.TRISA2 = 0;
  1418  0592  1105               	bcf	5,2	;volatile
  1419                           
  1420                           ;LCD-PIC16.c: 80: TRISAbits.TRISA3 = 0;
  1421  0593  1185               	bcf	5,3	;volatile
  1422                           
  1423                           ;LCD-PIC16.c: 92: for( i = 0; i < 11; i++ )
  1424  0594  01F3               	clrf	lcd_ioinit@i
  1425  0595  300B               	movlw	11
  1426  0596  0273               	subwf	lcd_ioinit@i,w
  1427  0597  1803               	btfsc	3,0
  1428  0598  2DA6               	goto	l955
  1429  0599                     l949:	
  1430                           
  1431                           ;LCD-PIC16.c: 93: lcd_ioset( i, 0 );
  1432  0599  01F0               	clrf	?_lcd_ioset
  1433  059A  0873               	movf	lcd_ioinit@i,w
  1434  059B  118A  2653  118A   	fcall	_lcd_ioset
  1435  059E  3001               	movlw	1
  1436  059F  00F2               	movwf	??_lcd_ioinit
  1437  05A0  0872               	movf	??_lcd_ioinit,w
  1438  05A1  07F3               	addwf	lcd_ioinit@i,f
  1439  05A2  300B               	movlw	11
  1440  05A3  0273               	subwf	lcd_ioinit@i,w
  1441  05A4  1C03               	skipc
  1442  05A5  2D99               	goto	l949
  1443  05A6                     l955:	
  1444                           
  1445                           ;LCD-PIC16.c: 97: return 4;
  1446  05A6  3004               	movlw	4
  1447  05A7  0008               	return
  1448  05A8                     __end_of_lcd_ioinit:	
  1449                           
  1450                           	psect	text8
  1451  05F1                     __ptext8:	
  1452 ;; *************** function _lcd_send *****************
  1453 ;; Defined at:
  1454 ;;		line 156 in file "../LCD.c"
  1455 ;; Parameters:    Size  Location     Type
  1456 ;;  data            1    wreg     unsigned char 
  1457 ;;  rs              1    6[COMMON] unsigned char 
  1458 ;; Auto vars:     Size  Location     Type
  1459 ;;  data            1    8[COMMON] unsigned char 
  1460 ;; Return value:  Size  Location     Type
  1461 ;;		None               void
  1462 ;; Registers used:
  1463 ;;		wreg, fsr0l, fsr0h, status,2, status,0, pclath, cstack
  1464 ;; Tracked objects:
  1465 ;;		On entry : 0/0
  1466 ;;		On exit  : 0/0
  1467 ;;		Unchanged: 0/0
  1468 ;; Data sizes:     COMMON   BANK0   BANK1   BANK3   BANK2
  1469 ;;      Params:         1       0       0       0       0
  1470 ;;      Locals:         1       0       0       0       0
  1471 ;;      Temps:          1       0       0       0       0
  1472 ;;      Totals:         3       0       0       0       0
  1473 ;;Total ram usage:        3 bytes
  1474 ;; Hardware stack levels used:    1
  1475 ;; Hardware stack levels required when called:    2
  1476 ;; This function calls:
  1477 ;;		_lcd_iowrite4
  1478 ;;		_lcd_ioset
  1479 ;;		_lcd_iowrite8
  1480 ;; This function is called by:
  1481 ;;		_main
  1482 ;;		_lcd_init
  1483 ;;		_lcd_clear
  1484 ;;		_lcd_on
  1485 ;;		_lcd_goto
  1486 ;;		_lcd_puts
  1487 ;;		_lcd_create_char
  1488 ;;		_lcd_home
  1489 ;;		_lcd_off
  1490 ;;		_lcd_cursor
  1491 ;;		_lcd_cursor_left
  1492 ;;		_lcd_cursor_right
  1493 ;;		_lcd_scroll_left
  1494 ;;		_lcd_scroll_right
  1495 ;;		_lcd_autoscroll_on
  1496 ;;		_lcd_autoscroll_off
  1497 ;; This function uses a non-reentrant model
  1498 ;;
  1499                           
  1500                           
  1501                           ;psect for function _lcd_send
  1502  05F1                     _lcd_send:	
  1503                           
  1504                           ;incstack = 0
  1505                           ; Regs used in _lcd_send: [wreg-fsr0h+status,2+status,0+pclath+cstack]
  1506                           ;lcd_send@data stored from wreg
  1507  05F1  00F8               	movwf	lcd_send@data
  1508                           
  1509                           ;LCD.c: 158: if (rs)
  1510  05F2  0876               	movf	lcd_send@rs,w
  1511  05F3  1903               	btfsc	3,2
  1512  05F4  2DF8               	goto	l979
  1513                           
  1514                           ;LCD.c: 159: lcd_ioset(E_RS_PIN,1);
  1515  05F5  01F0               	clrf	?_lcd_ioset
  1516  05F6  0AF0               	incf	?_lcd_ioset,f
  1517  05F7  2DF9               	goto	L3
  1518  05F8                     l979:	
  1519                           
  1520                           ;LCD.c: 160: else
  1521                           ;LCD.c: 161: lcd_ioset(E_RS_PIN,0);
  1522  05F8  01F0               	clrf	?_lcd_ioset
  1523  05F9                     L3:	
  1524  05F9  3009               	movlw	9
  1525  05FA  118A  2653  118A   	fcall	_lcd_ioset
  1526                           
  1527                           ;LCD.c: 163: lcd_ioset(E_RW_PIN,0);
  1528  05FD  01F0               	clrf	?_lcd_ioset
  1529  05FE  300A               	movlw	10
  1530  05FF  118A  2653  118A   	fcall	_lcd_ioset
  1531                           
  1532                           ;LCD.c: 165: if (iomode == 4) {
  1533  0602  1283               	bcf	3,5	;RP0=0, select bank0
  1534  0603  1303               	bcf	3,6	;RP1=0, select bank0
  1535  0604  082B               	movf	_iomode,w
  1536  0605  3A04               	xorlw	4
  1537  0606  1D03               	skipz
  1538  0607  2E18               	goto	l985
  1539                           
  1540                           ;LCD.c: 166: lcd_iowrite4(data >> 4);
  1541  0608  0878               	movf	lcd_send@data,w
  1542  0609  00F7               	movwf	??_lcd_send
  1543  060A  3004               	movlw	4
  1544  060B                     u265:	
  1545  060B  1003               	clrc
  1546  060C  0CF7               	rrf	??_lcd_send,f
  1547  060D  3EFF               	addlw	-1
  1548  060E  1D03               	skipz
  1549  060F  2E0B               	goto	u265
  1550  0610  0877               	movf	??_lcd_send,w
  1551  0611  118A  261C  118A   	fcall	_lcd_iowrite4
  1552                           
  1553                           ;LCD.c: 167: lcd_iowrite4(data);
  1554  0614  0878               	movf	lcd_send@data,w
  1555  0615  118A  261C         	fcall	_lcd_iowrite4
  1556                           
  1557                           ;LCD.c: 168: } else {
  1558  0617  0008               	return
  1559  0618                     l985:	
  1560                           
  1561                           ;LCD.c: 169: lcd_iowrite8(data);
  1562  0618  0878               	movf	lcd_send@data,w
  1563  0619  118A  254E         	fcall	_lcd_iowrite8
  1564  061B  0008               	return
  1565  061C                     __end_of_lcd_send:	
  1566                           
  1567                           	psect	text9
  1568  054E                     __ptext9:	
  1569 ;; *************** function _lcd_iowrite8 *****************
  1570 ;; Defined at:
  1571 ;;		line 161 in file "../LCD-PIC16.c"
  1572 ;; Parameters:    Size  Location     Type
  1573 ;;  data            1    wreg     unsigned char 
  1574 ;; Auto vars:     Size  Location     Type
  1575 ;;  data            1    0[COMMON] unsigned char 
  1576 ;; Return value:  Size  Location     Type
  1577 ;;		None               void
  1578 ;; Registers used:
  1579 ;;		wreg
  1580 ;; Tracked objects:
  1581 ;;		On entry : 0/0
  1582 ;;		On exit  : 0/0
  1583 ;;		Unchanged: 0/0
  1584 ;; Data sizes:     COMMON   BANK0   BANK1   BANK3   BANK2
  1585 ;;      Params:         0       0       0       0       0
  1586 ;;      Locals:         0       0       0       0       0
  1587 ;;      Temps:          0       0       0       0       0
  1588 ;;      Totals:         0       0       0       0       0
  1589 ;;Total ram usage:        0 bytes
  1590 ;; Hardware stack levels used:    1
  1591 ;; This function calls:
  1592 ;;		Nothing
  1593 ;; This function is called by:
  1594 ;;		_lcd_send
  1595 ;; This function uses a non-reentrant model
  1596 ;;
  1597                           
  1598                           
  1599                           ;psect for function _lcd_iowrite8
  1600  054E                     _lcd_iowrite8:	
  1601                           
  1602                           ;incstack = 0
  1603                           ; Regs used in _lcd_iowrite8: [wreg]
  1604  054E  0008               	return
  1605  054F                     __end_of_lcd_iowrite8:	
  1606                           
  1607                           	psect	text10
  1608  061C                     __ptext10:	
  1609 ;; *************** function _lcd_iowrite4 *****************
  1610 ;; Defined at:
  1611 ;;		line 147 in file "../LCD-PIC16.c"
  1612 ;; Parameters:    Size  Location     Type
  1613 ;;  data            1    wreg     unsigned char 
  1614 ;; Auto vars:     Size  Location     Type
  1615 ;;  data            1    4[COMMON] unsigned char 
  1616 ;;  i               1    5[COMMON] unsigned char 
  1617 ;; Return value:  Size  Location     Type
  1618 ;;		None               void
  1619 ;; Registers used:
  1620 ;;		wreg, fsr0l, fsr0h, status,2, status,0, pclath, cstack
  1621 ;; Tracked objects:
  1622 ;;		On entry : 0/0
  1623 ;;		On exit  : 0/0
  1624 ;;		Unchanged: 0/0
  1625 ;; Data sizes:     COMMON   BANK0   BANK1   BANK3   BANK2
  1626 ;;      Params:         0       0       0       0       0
  1627 ;;      Locals:         2       0       0       0       0
  1628 ;;      Temps:          2       0       0       0       0
  1629 ;;      Totals:         4       0       0       0       0
  1630 ;;Total ram usage:        4 bytes
  1631 ;; Hardware stack levels used:    1
  1632 ;; Hardware stack levels required when called:    1
  1633 ;; This function calls:
  1634 ;;		_lcd_ioset
  1635 ;; This function is called by:
  1636 ;;		_lcd_init
  1637 ;;		_lcd_send
  1638 ;; This function uses a non-reentrant model
  1639 ;;
  1640                           
  1641                           
  1642                           ;psect for function _lcd_iowrite4
  1643  061C                     _lcd_iowrite4:	
  1644                           
  1645                           ;incstack = 0
  1646                           ; Regs used in _lcd_iowrite4: [wreg-fsr0h+status,2+status,0+pclath+cstack]
  1647                           ;lcd_iowrite4@data stored from wreg
  1648  061C  00F4               	movwf	lcd_iowrite4@data
  1649                           
  1650                           ;LCD-PIC16.c: 149: uint8_t i;
  1651                           ;LCD-PIC16.c: 151: for( i = 4; i < 8; i++ )
  1652  061D  3004               	movlw	4
  1653  061E  00F2               	movwf	??_lcd_iowrite4
  1654  061F  0872               	movf	??_lcd_iowrite4,w
  1655  0620  00F5               	movwf	lcd_iowrite4@i
  1656  0621  3008               	movlw	8
  1657  0622  0275               	subwf	lcd_iowrite4@i,w
  1658  0623  1803               	btfsc	3,0
  1659  0624  2E44               	goto	l969
  1660  0625                     l963:	
  1661                           
  1662                           ;LCD-PIC16.c: 152: lcd_ioset( i, ( data & ( 1 << i - 4 ) ) ? 1 : 0 );
  1663  0625  3001               	movlw	1
  1664  0626  00F2               	movwf	??_lcd_iowrite4
  1665  0627  0875               	movf	lcd_iowrite4@i,w
  1666  0628  3EFC               	addlw	-4
  1667  0629  3E01               	addlw	1
  1668  062A  2E2D               	goto	u224
  1669  062B                     u225:	
  1670  062B  1003               	clrc
  1671  062C  0DF2               	rlf	??_lcd_iowrite4,f
  1672  062D                     u224:	
  1673  062D  3EFF               	addlw	-1
  1674  062E  1D03               	skipz
  1675  062F  2E2B               	goto	u225
  1676  0630  0872               	movf	??_lcd_iowrite4,w
  1677  0631  0574               	andwf	lcd_iowrite4@data,w
  1678  0632  3000               	movlw	0
  1679  0633  1D03               	btfss	3,2
  1680  0634  3001               	movlw	1
  1681  0635  00F3               	movwf	??_lcd_iowrite4+1
  1682  0636  0873               	movf	??_lcd_iowrite4+1,w
  1683  0637  00F0               	movwf	?_lcd_ioset
  1684  0638  0875               	movf	lcd_iowrite4@i,w
  1685  0639  118A  2653  118A   	fcall	_lcd_ioset
  1686  063C  3001               	movlw	1
  1687  063D  00F2               	movwf	??_lcd_iowrite4
  1688  063E  0872               	movf	??_lcd_iowrite4,w
  1689  063F  07F5               	addwf	lcd_iowrite4@i,f
  1690  0640  3008               	movlw	8
  1691  0641  0275               	subwf	lcd_iowrite4@i,w
  1692  0642  1C03               	skipc
  1693  0643  2E25               	goto	l963
  1694  0644                     l969:	
  1695                           
  1696                           ;LCD-PIC16.c: 154: lcd_ioset(E_EN_PIN,1);
  1697  0644  01F0               	clrf	?_lcd_ioset
  1698  0645  0AF0               	incf	?_lcd_ioset,f
  1699  0646  3008               	movlw	8
  1700  0647  118A  2653  118A   	fcall	_lcd_ioset
  1701                           
  1702                           ;LCD-PIC16.c: 155: _delay((unsigned long)((10)*(1000000/1000000.0)));
  1703  064A  3003               	movlw	3
  1704  064B  00F2               	movwf	??_lcd_iowrite4
  1705  064C                     u547:	
  1706  064C  0BF2               	decfsz	??_lcd_iowrite4,f
  1707  064D  2E4C               	goto	u547
  1708                           
  1709                           ;LCD-PIC16.c: 156: lcd_ioset(E_EN_PIN,0);
  1710  064E  01F0               	clrf	?_lcd_ioset
  1711  064F  3008               	movlw	8
  1712  0650  118A  2653         	fcall	_lcd_ioset
  1713  0652  0008               	return
  1714  0653                     __end_of_lcd_iowrite4:	
  1715                           
  1716                           	psect	text11
  1717  0653                     __ptext11:	
  1718 ;; *************** function _lcd_ioset *****************
  1719 ;; Defined at:
  1720 ;;		line 104 in file "../LCD-PIC16.c"
  1721 ;; Parameters:    Size  Location     Type
  1722 ;;  pin             1    wreg     enum E1012
  1723 ;;  out             1    0[COMMON] unsigned char 
  1724 ;; Auto vars:     Size  Location     Type
  1725 ;;  pin             1    1[COMMON] enum E1012
  1726 ;; Return value:  Size  Location     Type
  1727 ;;		None               void
  1728 ;; Registers used:
  1729 ;;		wreg, fsr0l, fsr0h, status,2, status,0
  1730 ;; Tracked objects:
  1731 ;;		On entry : 0/0
  1732 ;;		On exit  : 0/0
  1733 ;;		Unchanged: 0/0
  1734 ;; Data sizes:     COMMON   BANK0   BANK1   BANK3   BANK2
  1735 ;;      Params:         1       0       0       0       0
  1736 ;;      Locals:         1       0       0       0       0
  1737 ;;      Temps:          0       0       0       0       0
  1738 ;;      Totals:         2       0       0       0       0
  1739 ;;Total ram usage:        2 bytes
  1740 ;; Hardware stack levels used:    1
  1741 ;; This function calls:
  1742 ;;		Nothing
  1743 ;; This function is called by:
  1744 ;;		_lcd_send
  1745 ;;		_lcd_ioinit
  1746 ;;		_lcd_iowrite4
  1747 ;; This function uses a non-reentrant model
  1748 ;;
  1749                           
  1750                           
  1751                           ;psect for function _lcd_ioset
  1752  0653                     _lcd_ioset:	
  1753                           
  1754                           ;incstack = 0
  1755                           ; Regs used in _lcd_ioset: [wreg-fsr0h+status,2+status,0]
  1756                           ;lcd_ioset@pin stored from wreg
  1757  0653  00F1               	movwf	lcd_ioset@pin
  1758                           
  1759                           ;LCD-PIC16.c: 105: switch( pin ) {
  1760  0654  2E85               	goto	l929
  1761  0655                     l915:	
  1762                           ;LCD-PIC16.c: 120: case E_D4_PIN:
  1763                           
  1764                           
  1765                           ;LCD-PIC16.c: 121: PORTAbits.RA0 = out;
  1766  0655  0870               	movf	lcd_ioset@out,w
  1767  0656  1283               	bcf	3,5	;RP0=0, select bank0
  1768  0657  1303               	bcf	3,6	;RP1=0, select bank0
  1769  0658  1D03               	skipz
  1770  0659  1405               	bsf	5,0	;volatile
  1771  065A  1903               	skipnz
  1772  065B  1005               	bcf	5,0	;volatile
  1773                           
  1774                           ;LCD-PIC16.c: 122: break;
  1775  065C  0008               	return
  1776  065D                     l917:	
  1777                           ;LCD-PIC16.c: 123: case E_D5_PIN:
  1778                           
  1779                           
  1780                           ;LCD-PIC16.c: 124: PORTAbits.RA1 = out;
  1781  065D  0870               	movf	lcd_ioset@out,w
  1782  065E  1283               	bcf	3,5	;RP0=0, select bank0
  1783  065F  1303               	bcf	3,6	;RP1=0, select bank0
  1784  0660  1D03               	skipz
  1785  0661  1485               	bsf	5,1	;volatile
  1786  0662  1903               	skipnz
  1787  0663  1085               	bcf	5,1	;volatile
  1788                           
  1789                           ;LCD-PIC16.c: 125: break;
  1790  0664  0008               	return
  1791  0665                     l919:	
  1792                           ;LCD-PIC16.c: 126: case E_D6_PIN:
  1793                           
  1794                           
  1795                           ;LCD-PIC16.c: 127: PORTAbits.RA2 = out;
  1796  0665  0870               	movf	lcd_ioset@out,w
  1797  0666  1283               	bcf	3,5	;RP0=0, select bank0
  1798  0667  1303               	bcf	3,6	;RP1=0, select bank0
  1799  0668  1D03               	skipz
  1800  0669  1505               	bsf	5,2	;volatile
  1801  066A  1903               	skipnz
  1802  066B  1105               	bcf	5,2	;volatile
  1803                           
  1804                           ;LCD-PIC16.c: 128: break;
  1805  066C  0008               	return
  1806  066D                     l921:	
  1807                           ;LCD-PIC16.c: 129: case E_D7_PIN:
  1808                           
  1809                           
  1810                           ;LCD-PIC16.c: 130: PORTAbits.RA3 = out;
  1811  066D  0870               	movf	lcd_ioset@out,w
  1812  066E  1283               	bcf	3,5	;RP0=0, select bank0
  1813  066F  1303               	bcf	3,6	;RP1=0, select bank0
  1814  0670  1D03               	skipz
  1815  0671  1585               	bsf	5,3	;volatile
  1816  0672  1903               	skipnz
  1817  0673  1185               	bcf	5,3	;volatile
  1818                           
  1819                           ;LCD-PIC16.c: 131: break;
  1820  0674  0008               	return
  1821  0675                     l923:	
  1822                           ;LCD-PIC16.c: 132: case E_RS_PIN:
  1823                           
  1824                           
  1825                           ;LCD-PIC16.c: 133: PORTBbits.RB1 = out;
  1826  0675  0870               	movf	lcd_ioset@out,w
  1827  0676  1283               	bcf	3,5	;RP0=0, select bank0
  1828  0677  1303               	bcf	3,6	;RP1=0, select bank0
  1829  0678  1D03               	skipz
  1830  0679  1486               	bsf	6,1	;volatile
  1831  067A  1903               	skipnz
  1832  067B  1086               	bcf	6,1	;volatile
  1833                           
  1834                           ;LCD-PIC16.c: 134: break;
  1835  067C  0008               	return
  1836  067D                     l925:	
  1837                           ;LCD-PIC16.c: 135: case E_EN_PIN:
  1838                           
  1839                           
  1840                           ;LCD-PIC16.c: 136: PORTBbits.RB0 = out;
  1841  067D  0870               	movf	lcd_ioset@out,w
  1842  067E  1283               	bcf	3,5	;RP0=0, select bank0
  1843  067F  1303               	bcf	3,6	;RP1=0, select bank0
  1844  0680  1D03               	skipz
  1845  0681  1406               	bsf	6,0	;volatile
  1846  0682  1903               	skipnz
  1847  0683  1006               	bcf	6,0	;volatile
  1848                           
  1849                           ;LCD-PIC16.c: 143: }
  1850                           
  1851                           ;LCD-PIC16.c: 142: break;
  1852                           
  1853                           ;LCD-PIC16.c: 138: case E_RW_PIN:
  1854                           
  1855                           ;LCD-PIC16.c: 137: break;
  1856  0684  0008               	return
  1857  0685                     l929:	
  1858  0685  0871               	movf	lcd_ioset@pin,w
  1859                           
  1860                           ; Switch size 1, requested type "space"
  1861                           ; Number of cases is 7, Range of values is 4 to 10
  1862                           ; switch strategies available:
  1863                           ; Name         Instructions Cycles
  1864                           ; simple_byte           22    12 (average)
  1865                           ; direct_byte           24    10 (fixed)
  1866                           ; jumptable            263     9 (fixed)
  1867                           ;	Chosen strategy is simple_byte
  1868  0686  3A04               	xorlw	4	; case 4
  1869  0687  1903               	skipnz
  1870  0688  2E55               	goto	l915
  1871  0689  3A01               	xorlw	1	; case 5
  1872  068A  1903               	skipnz
  1873  068B  2E5D               	goto	l917
  1874  068C  3A03               	xorlw	3	; case 6
  1875  068D  1903               	skipnz
  1876  068E  2E65               	goto	l919
  1877  068F  3A01               	xorlw	1	; case 7
  1878  0690  1903               	skipnz
  1879  0691  2E6D               	goto	l921
  1880  0692  3A0F               	xorlw	15	; case 8
  1881  0693  1903               	skipnz
  1882  0694  2E7D               	goto	l925
  1883  0695  3A01               	xorlw	1	; case 9
  1884  0696  1903               	skipnz
  1885  0697  2E75               	goto	l923
  1886  0698  3A03               	xorlw	3	; case 10
  1887  0699  1903               	skipnz
  1888  069A  2E9C               	goto	l152
  1889  069B  2E9C               	goto	l152
  1890  069C                     l152:	
  1891  069C  0008               	return
  1892  069D                     __end_of_lcd_ioset:	
  1893  007E                     btemp	set	126	;btemp
  1894  007E                     wtemp0	set	126


Data Sizes:
    Strings     29
    Constant    32
    Data        6
    BSS         1
    Persistent  1
    Stack       0

Auto Spaces:
    Space          Size  Autos    Used
    COMMON           14     14      14
    BANK0            80      5      13
    BANK1            80      0       0
    BANK3            96      0       0
    BANK2            96      0       0

Pointer List with Targets:

    lcd_ioinit@iodata	PTR void  size(1) Largest target is 0
		 -> NULL(NULL[0]), 

    lcd_create_char@chardata	PTR const unsigned char  size(1) Largest target is 8
		 -> arrowd(CODE[8]), arrowl(CODE[8]), arrowu(CODE[8]), arrowr(CODE[8]), 

    lcd_puts@string	PTR const unsigned char  size(1) Largest target is 17
		 -> STR_2(CODE[12]), STR_1(CODE[17]), 

    lcd_init@iodata	PTR void  size(1) Largest target is 0
		 -> NULL(NULL[0]), 


Critical Paths under _main in COMMON

    _main->_lcd_init
    _lcd_goto->_lcd_send
    _lcd_puts->_lcd_send
    _lcd_on->_lcd_send
    _lcd_clear->_lcd_send
    _lcd_create_char->_lcd_send
    _lcd_init->_lcd_send
    _lcd_ioinit->_lcd_ioset
    _lcd_send->_lcd_iowrite4
    _lcd_iowrite4->_lcd_ioset

Critical Paths under _main in BANK0

    None.

Critical Paths under _main in BANK1

    None.

Critical Paths under _main in BANK3

    None.

Critical Paths under _main in BANK2

    None.

Call Graph Tables:

 ---------------------------------------------------------------------------------
 (Depth) Function   	        Calls       Base Space   Used Autos Params    Refs
 ---------------------------------------------------------------------------------
 (0) _main                                                 5     5      0    4427
                                              0 BANK0      5     5      0
                           _lcd_init
                    _lcd_create_char
                          _lcd_clear
                             _lcd_on
                           _lcd_puts
                           _lcd_goto
                           _lcd_send
 ---------------------------------------------------------------------------------
 (1) _lcd_goto                                             3     2      1     598
                                              9 COMMON     3     2      1
                           _lcd_send
 ---------------------------------------------------------------------------------
 (1) _lcd_puts                                             2     2      0     553
                                              9 COMMON     2     2      0
                           _lcd_send
 ---------------------------------------------------------------------------------
 (1) _lcd_on                                               1     1      0     508
                                              9 COMMON     1     1      0
                           _lcd_send
 ---------------------------------------------------------------------------------
 (1) _lcd_clear                                            2     2      0     508
                                              9 COMMON     2     2      0
                           _lcd_send
 ---------------------------------------------------------------------------------
 (1) _lcd_create_char                                      4     3      1     621
                                              9 COMMON     4     3      1
                           _lcd_send
 ---------------------------------------------------------------------------------
 (1) _lcd_init                                             5     3      2    1063
                                              9 COMMON     5     3      2
                           _lcd_send
                         _lcd_ioinit
                       _lcd_iowrite4
 ---------------------------------------------------------------------------------
 (2) _lcd_ioinit                                           3     3      0     223
                                              2 COMMON     2     2      0
                          _lcd_ioset
 ---------------------------------------------------------------------------------
 (1) _lcd_send                                             3     2      1     508
                                              6 COMMON     3     2      1
                       _lcd_iowrite4
                          _lcd_ioset
                       _lcd_iowrite8
 ---------------------------------------------------------------------------------
 (2) _lcd_iowrite8                                         1     1      0       0
 ---------------------------------------------------------------------------------
 (2) _lcd_iowrite4                                         4     4      0     266
                                              2 COMMON     4     4      0
                          _lcd_ioset
 ---------------------------------------------------------------------------------
 (2) _lcd_ioset                                            2     1      1     154
                                              0 COMMON     2     1      1
 ---------------------------------------------------------------------------------
 Estimated maximum stack depth 2
 ---------------------------------------------------------------------------------

 Call Graph Graphs:

 _main (ROOT)
   _lcd_init
     _lcd_send
       _lcd_iowrite4
         _lcd_ioset
       _lcd_ioset
       _lcd_iowrite8
     _lcd_ioinit
       _lcd_ioset
     _lcd_iowrite4
       _lcd_ioset
   _lcd_create_char
     _lcd_send
       _lcd_iowrite4
         _lcd_ioset
       _lcd_ioset
       _lcd_iowrite8
   _lcd_clear
     _lcd_send
       _lcd_iowrite4
         _lcd_ioset
       _lcd_ioset
       _lcd_iowrite8
   _lcd_on
     _lcd_send
       _lcd_iowrite4
         _lcd_ioset
       _lcd_ioset
       _lcd_iowrite8
   _lcd_puts
     _lcd_send
       _lcd_iowrite4
         _lcd_ioset
       _lcd_ioset
       _lcd_iowrite8
   _lcd_goto
     _lcd_send
       _lcd_iowrite4
         _lcd_ioset
       _lcd_ioset
       _lcd_iowrite8
   _lcd_send
     _lcd_iowrite4
       _lcd_ioset
     _lcd_ioset
     _lcd_iowrite8

 Address spaces:
Name               Size   Autos  Total    Cost      Usage
BANK3               60      0       0       9        0.0%
BITBANK3            60      0       0       8        0.0%
SFR3                 0      0       0       4        0.0%
BITSFR3              0      0       0       4        0.0%
BANK2               60      0       0      11        0.0%
BITBANK2            60      0       0      10        0.0%
SFR2                 0      0       0       5        0.0%
BITSFR2              0      0       0       5        0.0%
BANK1               50      0       0       7        0.0%
BITBANK1            50      0       0       6        0.0%
SFR1                 0      0       0       2        0.0%
BITSFR1              0      0       0       2        0.0%
BANK0               50      5       D       5       16.2%
BITBANK0            50      0       0       4        0.0%
SFR0                 0      0       0       1        0.0%
BITSFR0              0      0       0       1        0.0%
COMMON               E      E       E       1      100.0%
BITCOMMON            E      0       0       0        0.0%
CODE                 0      0       0       0        0.0%
DATA                 0      0      1F      12        0.0%
ABS                  0      0      1B       3        0.0%
NULL                 0      0       0       0        0.0%
STACK                0      0       4       2        0.0%
EEDATA             100      0       0       0        0.0%


Microchip Technology PIC Macro Assembler V1.21 build 54009 
Symbol Table                                                                                   Thu Aug  7 17:32:19 2014

           ?_lcd_iowrite4 0070             ?_lcd_iowrite8 0070                         pc 0002  
             __CFG_CP$OFF 0000                        fsr 0004                       l152 069C  
                     l921 066D                       l923 0675                       l915 0655  
                     l925 067D                       l917 065D                       l919 0665  
                     l929 0685                       l963 0625                       l955 05A6  
                     l949 0599                       l969 0644                       l985 0618  
                     l979 05F8                       u224 062D                       u225 062B  
                     u407 055E                       u265 060B                       u417 0754  
            __CFG_CPD$OFF 0000                       u507 07BF                       u427 0767  
                     u355 0701                       u517 07C9                       u437 0771  
                     u527 07D5                       u447 077A                       u295 05D1  
                     u537 07E1                       u457 0783                       u377 070B  
                     u547 064C                       u467 078D                       u387 071B  
                     u477 07A0                       u397 056F                       u487 07AB  
                     u497 07B5          lcd_ioinit@iodata 0070                       fsr0 0004  
                     indf 0000               lcd_goto@col 007B               lcd_goto@row 0079  
            __CFG_FOSC$XT 0000               lcd_ioinit@i 0073              __CFG_LVP$OFF 0000  
                    l1011 0791                      l1025 07C2                      l1107 06F4  
                    l1073 05B4                      l1067 0574                      l1077 05BD  
                    STR_1 0028                      STR_2 0039              __CFG_WRT$OFF 0000  
                    _main 069D                      btemp 007E              lcd_init@cols 0079  
            lcd_init@rows 007A                      start 0000             __CFG_IESO$OFF 0000  
           __CFG_MCLRE$ON 0000            ??_lcd_iowrite4 0072            ??_lcd_iowrite8 0070  
            lcd_ioset@pin 0071              lcd_ioset@out 0070              lcd_send@data 0078  
                   ?_main 0070             __CFG_WDTE$OFF 0000                     _ANSEL 009B  
                   _TRISA 0085                     _TRISB 0086            __CFG_CCPMX$RB0 0000  
          __CFG_FCMEN$OFF 0000                     main@i 0029            __CFG_BOREN$OFF 0000  
                   pclath 000A                     status 0003                     wtemp0 007E  
         __initialization 07E5              __end_of_main 073E                    ??_main 0026  
           lcd_iowrite4@i 0075            __CFG_PWRTE$OFF 0000          __end_of_lcd_init 07E5  
        __end_of_lcd_goto 05C8          __end_of_lcd_send 061C          __end_of_lcd_puts 058B  
                  _lcd_on 0564  __size_of_lcd_create_char 0029                    _arrowd 0008  
                  _arrowl 0010                    _arrowr 0018                    _arrowu 0020  
                  _iomode 002B            lcd_init@iodata 007D      __end_of_lcd_iowrite4 0653  
    __end_of_lcd_iowrite8 054F   __end_of__initialization 07FD            __pcstackCOMMON 0070  
            __pidataBANK0 054F          lcd_iowrite4@data 0074          lcd_iowrite8@data 0070  
      __size_of_lcd_clear 000F        __size_of_lcd_ioset 004A                __pbssBANK0 002C  
              __pmaintext 069D    lcd_create_char@charnum 007B                   ?_lcd_on 0070  
       ??_lcd_create_char 007A                _lcd_ioinit 058B                _lcdcolumns 0024  
               ?_lcd_init 0079                 ?_lcd_goto 0079                 ?_lcd_send 0076  
               ?_lcd_puts 0070                __stringtab 0002         __end_of_lcd_clear 0564  
       __end_of_lcd_ioset 069D           __size_of_lcd_on 000F                   __ptext1 05A8  
                 __ptext2 0573                   __ptext3 0564                   __ptext4 0555  
                 __ptext5 05C8                   __ptext6 073E                   __ptext7 058B  
                 __ptext8 05F1                   __ptext9 054E     __size_of_lcd_iowrite4 0037  
   __size_of_lcd_iowrite8 0001                   _lcdrows 0025                   _rowaddr 0020  
              ??_lcd_init 007B                ??_lcd_goto 007A                ??_lcd_send 0077  
              ??_lcd_puts 0079      end_of_initialization 07FD            lcd_puts@string 007A  
            _lcd_iowrite4 061C              _lcd_iowrite8 054E                 _PORTAbits 0005  
               _PORTBbits 0006                 _TRISAbits 0085                 _TRISBbits 0086  
             ?_lcd_ioinit 0070                lcd_send@rs 0076            __end_of_lcd_on 0573  
          __end_of_arrowd 0010            __end_of_arrowl 0018            __end_of_arrowr 0020  
          __end_of_arrowu 0028       start_initialization 07E5          lcd_create_char@i 007C  
     __size_of_lcd_ioinit 001D           _lcd_create_char 05C8                  ??_lcd_on 0079  
             __pdataBANK0 0020             __pcstackBANK0 0026       __end_of__stringdata 0045  
       __size_of_lcd_init 00A7         __size_of_lcd_goto 0020         __size_of_lcd_send 002B  
       __size_of_lcd_puts 0018                 __pnvBANK0 002B   lcd_create_char@chardata 0079  
               _lcd_clear 0555                 _lcd_ioset 0653                 __pstrings 0002  
 __end_of_lcd_create_char 05F1                ?_lcd_clear 0070                ?_lcd_ioset 0070  
             __stringbase 0007               __stringdata 0028              ??_lcd_ioinit 0072  
      __end_of_lcd_ioinit 05A8        __end_of__stringtab 0008                  __ptext10 061C  
                __ptext11 0653                  _lcd_init 073E                  _lcd_goto 05A8  
                _lcd_send 05F1                  _dispctrl 002C                  _lcd_puts 0573  
           __size_of_main 00A1          ?_lcd_create_char 0079               ??_lcd_clear 0079  
             ??_lcd_ioset 0071                 stringcode 0002                  stringdir 0002  
                stringtab 0002  
